LX51 LINKER/LOCATER V4.66.30.0                                                          05/06/2017  23:10:53  PAGE 1


LX51 LINKER/LOCATER V4.66.30.0, INVOKED BY:
C:\SILICONLABS\SIMPLICITYSTUDIO\V4\DEVELOPER\TOOLCHAINS\KEIL_8051\9.53\BIN\LX51.EXE ./lib/bsp/efm8_joystick/joystick.OBJ
>> , ./lib/bsp/efm8_memory_lcd/src/disp.OBJ, ./lib/bsp/efm8_memory_lcd/src/render.OBJ, ./lib/bsp/efm8_retargetserial/ret
>> argetio.OBJ, ./lib/bsp/efm8_retargetserial/retargetserial.OBJ, ./lib/efm8bb3/bsp/efm8_memory_lcd/src/source/spi.OBJ, 
>> ./lib/efm8bb3/bsp/efm8_memory_lcd/src/source/tick.OBJ, ./lib/efm8bb3/peripheralDrivers/src/spi_0.OBJ, ./src/InitDevic
>> e.OBJ, ./src/SILABS_STARTUP.OBJ, ./src/function_generator.OBJ, ./src/main.OBJ TO EFM8BB3_FUNCTIONGENERATOR.OMF.CRBUIL
>> D REMOVEUNUSED PRINT (.\EFM8BB3_FunctionGenerator.m51) PAGEWIDTH (120) PAGELENGTH (65) CLASSES (ECODE (C:0X0-C:0XFBFE
>> ), HCONST (C:0X0-C:0XFBFE), XDATA (X:0X0-X:0XFFF), HDATA (X:0X0-X:0XFFF))


CPU MODE:     8051 MODE
MEMORY MODEL: LARGE


INPUT MODULES INCLUDED:
  ./lib/bsp/efm8_joystick/joystick.OBJ (JOYSTICK)
         COMMENT TYPE 0: C51 V9.53.0.0
  ./lib/bsp/efm8_memory_lcd/src/disp.OBJ (DISP)
         COMMENT TYPE 0: C51 V9.53.0.0
  ./lib/bsp/efm8_memory_lcd/src/render.OBJ (RENDER)
         COMMENT TYPE 0: C51 V9.53.0.0
  ./lib/bsp/efm8_retargetserial/retargetio.OBJ (RETARGETIO)
         COMMENT TYPE 0: C51 V9.53.0.0
  ./lib/bsp/efm8_retargetserial/retargetserial.OBJ (RETARGETSERIAL)
         COMMENT TYPE 0: C51 V9.53.0.0
  ./lib/efm8bb3/bsp/efm8_memory_lcd/src/source/spi.OBJ (SPI)
         COMMENT TYPE 0: C51 V9.53.0.0
  ./lib/efm8bb3/bsp/efm8_memory_lcd/src/source/tick.OBJ (TICK)
         COMMENT TYPE 0: C51 V9.53.0.0
  ./lib/efm8bb3/peripheralDrivers/src/spi_0.OBJ (SPI_0)
         COMMENT TYPE 0: C51 V9.53.0.0
  ./src/InitDevice.OBJ (INITDEVICE)
         COMMENT TYPE 0: C51 V9.53.0.0
  ./src/SILABS_STARTUP.OBJ (?C_STARTUP)
         COMMENT TYPE 0: AX51 V3.12.0.0
  ./src/function_generator.OBJ (FUNCTION_GENERATOR)
         COMMENT TYPE 0: C51 V9.53.0.0
  ./src/main.OBJ (MAIN)
         COMMENT TYPE 0: C51 V9.53.0.0
  C:\SILICONLABS\SIMPLICITYSTUDIO\V4\DEVELOPER\TOOLCHAINS\KEIL_8051\9.53\LIB\C51L.LIB (?C_INIT)
         COMMENT TYPE 1: A51 / ASM51 Assembler
  C:\SILICONLABS\SIMPLICITYSTUDIO\V4\DEVELOPER\TOOLCHAINS\KEIL_8051\9.53\LIB\C51L.LIB (?C?CLDPTR)
         COMMENT TYPE 1: A51 / ASM51 Assembler
  C:\SILICONLABS\SIMPLICITYSTUDIO\V4\DEVELOPER\TOOLCHAINS\KEIL_8051\9.53\LIB\C51L.LIB (?C?CLDOPTR)
         COMMENT TYPE 1: A51 / ASM51 Assembler
  C:\SILICONLABS\SIMPLICITYSTUDIO\V4\DEVELOPER\TOOLCHAINS\KEIL_8051\9.53\LIB\C51L.LIB (?C?IILDX)
         COMMENT TYPE 1: A51 / ASM51 Assembler
  C:\SILICONLABS\SIMPLICITYSTUDIO\V4\DEVELOPER\TOOLCHAINS\KEIL_8051\9.53\LIB\C51L.LIB (?C?LMUL)
         COMMENT TYPE 1: A51 / ASM51 Assembler
  C:\SILICONLABS\SIMPLICITYSTUDIO\V4\DEVELOPER\TOOLCHAINS\KEIL_8051\9.53\LIB\C51L.LIB (?C?ULDIV)
         COMMENT TYPE 1: A51 / ASM51 Assembler
  C:\SILICONLABS\SIMPLICITYSTUDIO\V4\DEVELOPER\TOOLCHAINS\KEIL_8051\9.53\LIB\C51L.LIB (?C?SLDIV)
         COMMENT TYPE 1: A51 / ASM51 Assembler
  C:\SILICONLABS\SIMPLICITYSTUDIO\V4\DEVELOPER\TOOLCHAINS\KEIL_8051\9.53\LIB\C51L.LIB (?C?ULCMP)
         COMMENT TYPE 1: A51 / ASM51 Assembler
  C:\SILICONLABS\SIMPLICITYSTUDIO\V4\DEVELOPER\TOOLCHAINS\KEIL_8051\9.53\LIB\C51L.LIB (?C?LSTXDATA)
         COMMENT TYPE 1: A51 / ASM51 Assembler
  C:\SILICONLABS\SIMPLICITYSTUDIO\V4\DEVELOPER\TOOLCHAINS\KEIL_8051\9.53\LIB\C51L.LIB (?C?LIMUL)
         COMMENT TYPE 1: A51 / ASM51 Assembler
  C:\SILICONLABS\SIMPLICITYSTUDIO\V4\DEVELOPER\TOOLCHAINS\KEIL_8051\9.53\LIB\C51L.LIB (PRINTF)
         COMMENT TYPE 1: A51 / ASM51 Assembler
  C:\SILICONLABS\SIMPLICITYSTUDIO\V4\DEVELOPER\TOOLCHAINS\KEIL_8051\9.53\LIB\C51L.LIB (GETCHAR)
         COMMENT TYPE 1: A51 / ASM51 Assembler
LX51 LINKER/LOCATER V4.66.30.0                                                        05/06/2017  23:10:53  PAGE 2


  C:\SILICONLABS\SIMPLICITYSTUDIO\V4\DEVELOPER\TOOLCHAINS\KEIL_8051\9.53\LIB\C51L.LIB (?C?CSTPTR)
         COMMENT TYPE 1: A51 / ASM51 Assembler
  C:\SILICONLABS\SIMPLICITYSTUDIO\V4\DEVELOPER\TOOLCHAINS\KEIL_8051\9.53\LIB\C51L.LIB (?C?PLDIXDATA)
         COMMENT TYPE 1: A51 / ASM51 Assembler
  C:\SILICONLABS\SIMPLICITYSTUDIO\V4\DEVELOPER\TOOLCHAINS\KEIL_8051\9.53\LIB\C51L.LIB (?C?PSTXDATA)
         COMMENT TYPE 1: A51 / ASM51 Assembler
  C:\SILICONLABS\SIMPLICITYSTUDIO\V4\DEVELOPER\TOOLCHAINS\KEIL_8051\9.53\LIB\C51L.LIB (?C?CCASE)
         COMMENT TYPE 1: A51 / ASM51 Assembler


ACTIVE MEMORY CLASSES OF MODULE:  EFM8BB3_FUNCTIONGENERATOR.OMF.CRBUILD (JOYSTICK)

BASE        START       END         USED      MEMORY CLASS
==========================================================
C:000000H   C:000000H   C:00FBFEH             ECODE
B00:0000H   C:000000H   C:00FBFEH             HCONST
X:000000H   X:000000H   X:000FFFH   0000ECH   XDATA
X:000000H   X:000000H   X:000FFFH             HDATA
C:000000H   C:000000H   C:00FFFFH   002E13H   CODE
C:000000H   C:000000H   C:00FFFFH   000320H   CONST
X:000000H   X:000000H   X:0000FFH   000014H   PDATA
I:000020H.0 I:000020H.0 I:00002FH.7 000001H.7 BIT
I:000000H   I:000000H   I:0000FFH   000001H   IDATA
I:000000H   I:000000H   I:00007FH   000015H   DATA


MEMORY MAP OF MODULE:  EFM8BB3_FUNCTIONGENERATOR.OMF.CRBUILD (JOYSTICK)


START     STOP      LENGTH    ALIGN  RELOC    MEMORY CLASS   SEGMENT NAME
=========================================================================

* * * * * * * * * * *   D A T A   M E M O R Y   * * * * * * * * * * * * *
000000H   000007H   000008H   ---    AT..     DATA           "REG BANK 0"
000008H   00000FH   000008H   ---    AT..     DATA           "REG BANK 1"
000010H   000014H   000005H   BYTE   UNIT     DATA           _DATA_GROUP_
000015H.0 00001FH.7 00000BH.0 ---    ---      **GAP**
000020H.0 000021H.0 000001H.1 BIT    UNIT     BIT            _BIT_GROUP_
000021H.1 000021H.5 000000H.5 BIT    UNIT     BIT            ?BI?SPI_0
000021H.6 000021H.6 000000H.1 BIT    UNIT     BIT            ?BI?GETCHAR
000021H.7 000021H   000000H.1 ---    ---      **GAP**
000022H   000022H   000001H   BYTE   UNIT     IDATA          ?STACK

* * * * * * * * * * *   C O D E   M E M O R Y   * * * * * * * * * * * * *
000000H   000002H   000003H   ---    OFFS..   CODE           ?CO?SILABS_STARTUP?3
000003H   000024H   000022H   BYTE   UNIT     CODE           ?PR?TIMER16_4_ENTER_DEFAULTMODE_FROM_RESET?INITDEVICE
000025H   00002AH   000006H   BYTE   UNIT     CODE           ?PR?CLOCK_0_ENTER_DEFAULTMODE_FROM_RESET?INITDEVICE
00002BH   00002DH   000003H   BYTE   OFFS..   CODE           ?SPI?0002B
00002EH   000031H   000004H   BYTE   UNIT     CODE           ?PR?_GETKEY?RETARGETIO
000032H   000032H   000001H   ---    ---      **GAP**
000033H   000035H   000003H   BYTE   OFFS..   CODE           ?SPI_0?00033
000036H   000042H   00000DH   BYTE   UNIT     CODE           ?PR?SPI_0_ENTER_DEFAULTMODE_FROM_RESET?INITDEVICE
000043H   000045H   000003H   BYTE   OFFS..   CODE           ?FUNCTION_GENERATOR?00043
000046H   000072H   00002DH   BYTE   UNIT     CODE           ?PR?PMATCH_ISR?FUNCTION_GENERATOR
000073H   000075H   000003H   BYTE   OFFS..   CODE           ?TICK?00073
000076H   000089H   000014H   BYTE   UNIT     CODE           ?PR?_RETARGET_WRITECHAR?RETARGETSERIAL
00008AH   00008AH   000001H   ---    ---      **GAP**
00008BH   00008DH   000003H   BYTE   OFFS..   CODE           ?FUNCTION_GENERATOR?0008B
00008EH   002118H   00208BH   BYTE   UNIT     CODE           ?CO?FUNCTION_GENERATOR
002119H   00247DH   000365H   BYTE   UNIT     CODE           ?PR?PRINTF?PRINTF
00247EH   002698H   00021BH   BYTE   UNIT     CODE           ?C?LIB_CODE
002699H   002799H   000101H   BYTE   UNIT     CODE           ?PR?_RENDER_STRLINE?RENDER
LX51 LINKER/LOCATER V4.66.30.0                                                        05/06/2017  23:10:53  PAGE 3


00279AH   002855H   0000BCH   BYTE   UNIT     CODE           ?PR?SPI0_ISR?SPI_0
002856H   0028E1H   00008CH   BYTE   UNIT     CODE           ?C_C51STARTUP
0028E2H   00294BH   00006AH   BYTE   UNIT     CODE           ?C_INITSEG
00294CH   0029B3H   000068H   BYTE   UNIT     CODE           ?PR?_SPI0_TRANSFER?SPI_0
0029B4H   002A18H   000065H   BYTE   UNIT     CODE           ?PR?TIMER2_ISR?SPI
002A19H   002A79H   000061H   BYTE   UNIT     CODE           ?PR?TIMER4_ISR?FUNCTION_GENERATOR
002A7AH   002AD8H   00005FH   BYTE   UNIT     CODE           ?PR?_DISP_WRITELINE?DISP
002AD9H   002B34H   00005CH   BYTE   UNIT     CODE           ?PR?_DRAWSCREENTEXT?FUNCTION_GENERATOR
002B35H   002B85H   000051H   BYTE   UNIT     CODE           ?PR?_SPI_STARTTRANSFER?SPI
002B86H   002BCBH   000046H   BYTE   UNIT     CODE           ?PR?ENTER_DEFAULTMODE_FROM_RESET?INITDEVICE
002BCCH   002C0FH   000044H   BYTE   UNIT     CODE           ?C?LDIV
002C10H   002C50H   000041H   BYTE   UNIT     CODE           ?PR?DRAWCHARACTER?FUNCTION_GENERATOR
002C51H   002C8BH   00003BH   BYTE   UNIT     CODE           ?PR?_SOFTWAREVCOMTOGGLE?DISP
002C8CH   002CB7H   00002CH   BYTE   UNIT     CODE           ?PR?_BITREVERSE?DISP
002CB8H   002CD5H   00001EH   BYTE   UNIT     CODE           ?PR?TIMER3_ISR?TICK
002CD6H   002CEEH   000019H   BYTE   UNIT     CODE           ?PR?TIMER16_3_ENTER_DEFAULTMODE_FROM_RESET?INITDEVICE
002CEFH   002D06H   000018H   BYTE   UNIT     CODE           ?PR?GETTICKCOUNT?TICK
002D07H   002D1DH   000017H   BYTE   UNIT     CODE           ?PR?SPI0_TRANSFERCOMPLETECB?SPI
002D1EH   002D33H   000016H   BYTE   UNIT     CODE           ?PR?INTERRUPT_0_ENTER_DEFAULTMODE_FROM_RESET?INITDEVICE
002D34H   002D47H   000014H   BYTE   UNIT     CODE           ?PR?GETCHAR?GETCHAR
002D48H   002D5AH   000013H   BYTE   UNIT     CODE           ?PR?TIMER01_0_ENTER_DEFAULTMODE_FROM_RESET?INITDEVICE
002D5BH   002D6DH   000013H   BYTE   UNIT     CODE           ?PR?ADC_0_ENTER_DEFAULTMODE_FROM_RESET?INITDEVICE
002D6EH   002D7FH   000012H   BYTE   UNIT     CODE           ?PR?_RENDER_CLRLINE?RENDER
002D80H   002D91H   000012H   BYTE   UNIT     CODE           ?PR?PORTS_0_ENTER_DEFAULTMODE_FROM_RESET?INITDEVICE
002D92H   002DA3H   000012H   BYTE   UNIT     CODE           ?PR?PORTS_1_ENTER_DEFAULTMODE_FROM_RESET?INITDEVICE
002DA4H   002DB4H   000011H   BYTE   UNIT     CODE           ?PR?SPI0_INTERNALINIT?SPI_0
002DB5H   002DC2H   00000EH   BYTE   UNIT     CODE           ?PR?MAIN?MAIN
002DC3H   002DCCH   00000AH   BYTE   UNIT     CODE           ?PR?WDT_0_ENTER_DEFAULTMODE_FROM_RESET?INITDEVICE
002DCDH   002DD6H   00000AH   BYTE   UNIT     CODE           ?PR?PORTS_2_ENTER_DEFAULTMODE_FROM_RESET?INITDEVICE
002DD7H   002DE0H   00000AH   BYTE   UNIT     CODE           ?PR?PBCFG_0_ENTER_DEFAULTMODE_FROM_RESET?INITDEVICE
002DE1H   002DEAH   00000AH   BYTE   UNIT     CODE           ?PR?TIMER_SETUP_0_ENTER_DEFAULTMODE_FROM_RESET?INITDEVICE
002DEBH   002DF2H   000008H   BYTE   UNIT     CODE           ?PR?RETARGET_READCHAR?RETARGETSERIAL
002DF3H   002DF9H   000007H   BYTE   UNIT     CODE           ?PR?DAC_0_ENTER_DEFAULTMODE_FROM_RESET?INITDEVICE
002DFAH   002E00H   000007H   BYTE   UNIT     CODE           ?PR?VREF_0_ENTER_DEFAULTMODE_FROM_RESET?INITDEVICE
002E01H   002E04H   000004H   BYTE   UNIT     CODE           ?PR?_PUTCHAR?RETARGETIO
002E05H   002E08H   000004H   BYTE   UNIT     CODE           ?PR?UART_0_ENTER_DEFAULTMODE_FROM_RESET?INITDEVICE
002E09H   002E0CH   000004H   BYTE   UNIT     CODE           ?PR?PORTS_3_ENTER_DEFAULTMODE_FROM_RESET?INITDEVICE
002E0DH   002E10H   000004H   BYTE   UNIT     CODE           ?PR?DAC_1_ENTER_DEFAULTMODE_FROM_RESET?INITDEVICE
002E11H   002E14H   000004H   BYTE   UNIT     CODE           ?PR?DACGCF_0_ENTER_DEFAULTMODE_FROM_RESET?INITDEVICE
002E15H   003134H   000320H   BYTE   UNIT     CONST          ?CO?RENDER

* * * * * * * * * * *  X D A T A   M E M O R Y  * * * * * * * * * * * * *
000000H   000013H   000014H   BYTE   INPAGE   PDATA          ?PD?SPI
000014H   0000C5H   0000B2H   BYTE   UNIT     XDATA          _XDATA_GROUP_
0000C6H   0000F2H   00002DH   BYTE   UNIT     XDATA          ?XD?FUNCTION_GENERATOR
0000F3H   0000F8H   000006H   BYTE   UNIT     XDATA          ?XD?SPI_0
0000F9H   0000FAH   000002H   BYTE   UNIT     XDATA          ?XD?DISP
0000FBH   0000FCH   000002H   BYTE   UNIT     XDATA          ?XD?SPI
0000FDH   0000FEH   000002H   BYTE   UNIT     XDATA          ?XD?TICK
0000FFH   0000FFH   000001H   BYTE   UNIT     XDATA          ?XD?GETCHAR

* * * * * * * * *   R E M O V E D     S E G M E N T S   * * * * * * * *
   *DEL*:           000201H   BYTE   UNIT     CODE           ?PR?_JOYSTICK_CONVERT_MV_TO_DIRECTION?JOYSTICK
   *DEL*:           000005H   BYTE   UNIT     XDATA          ?XD?_JOYSTICK_CONVERT_MV_TO_DIRECTION?JOYSTICK
   *DEL*:           00000EH   BYTE   UNIT     CODE           ?PR?DISP_INIT?DISP
   *DEL*:           00001DH   BYTE   UNIT     CODE           ?PR?DISP_CLEARALL?DISP
   *DEL*:           000001H   BYTE   UNIT     XDATA          ?XD?DISP_CLEARALL?DISP
   *DEL*:           000056H   BYTE   UNIT     CODE           ?PR?_DISP_CLEARLINE?DISP
   *DEL*:           000016H   BYTE   UNIT     XDATA          ?XD?_DISP_CLEARLINE?DISP
   *DEL*:           00002FH   BYTE   UNIT     CODE           ?PR?_RENDER_GETSTRSIZE?RENDER
   *DEL*:           000003H   BYTE   UNIT     XDATA          ?XD?_RENDER_GETSTRSIZE?RENDER
   *DEL*:           00002CH   BYTE   UNIT     CODE           ?PR?_RENDER_PIXELLINE?RENDER
LX51 LINKER/LOCATER V4.66.30.0                                                        05/06/2017  23:10:53  PAGE 4


   *DEL*:           00002DH   BYTE   UNIT     CODE           ?PR?_RENDER_LINESEGMENTLINE?RENDER
   *DEL*:           000002H   BYTE   UNIT     XDATA          ?XD?_RENDER_LINESEGMENTLINE?RENDER
   *DEL*:           000072H   BYTE   UNIT     CODE           ?PR?_RENDER_BYTE?RENDER
   *DEL*:           000002H   BYTE   UNIT     XDATA          ?XD?_RENDER_BYTE?RENDER
   *DEL*:           0000E4H   BYTE   UNIT     CODE           ?PR?_RENDER_SPRITELINE?RENDER
   *DEL*:           00000AH   BYTE   UNIT     XDATA          ?XD?_RENDER_SPRITELINE?RENDER
   *DEL*:           0000ACH   BYTE   UNIT     CODE           ?PR?_RENDER_SPRITELINEFOREGROUND?RENDER
   *DEL*:           00000AH   BYTE   UNIT     XDATA          ?XD?_RENDER_SPRITELINEFOREGROUND?RENDER
   *DEL*:           000029H   BYTE   UNIT     CODE           ?PR?_WAIT?TICK
   *DEL*:           000002H   BYTE   UNIT     XDATA          ?XD?_WAIT?TICK
   *DEL*:           00000DH   BYTE   UNIT     CODE           ?PR?SPI0_GETINTFLAGS?SPI_0
   *DEL*:           000010H   BYTE   UNIT     CODE           ?PR?_SPI0_CLEARINTFLAGS?SPI_0
   *DEL*:           000015H   BYTE   UNIT     CODE           ?PR?_SPI0_WRITEBYTE?SPI_0
   *DEL*:           000000H.1 BIT    UNIT     BIT            ?BI?_SPI0_WRITEBYTE?SPI_0
   *DEL*:           00000FH   BYTE   UNIT     CODE           ?PR?_SPI0_POLLWRITEBYTE?SPI_0
   *DEL*:           00000CH   BYTE   UNIT     CODE           ?PR?SPI0_READBYTE?SPI_0
   *DEL*:           000011H   BYTE   UNIT     CODE           ?PR?SPI0_POLLREADBYTE?SPI_0
   *DEL*:           000094H   BYTE   UNIT     CODE           ?PR?_SPI0_POLLTRANSFER?SPI_0
   *DEL*:           000007H   BYTE   UNIT     XDATA          ?XD?_SPI0_POLLTRANSFER?SPI_0
   *DEL*:           000000H.1 BIT    UNIT     BIT            ?BI?_SPI0_POLLTRANSFER?SPI_0
   *DEL*:           00001CH   BYTE   UNIT     CODE           ?PR?SPI0_ISBUSY?SPI_0
   *DEL*:           000000H.1 BIT    UNIT     BIT            ?BI?SPI0_ISBUSY?SPI_0
   *DEL*:           00000FH   BYTE   UNIT     CODE           ?PR?SPI0_ISTXFULL?SPI_0
   *DEL*:           000000H.1 BIT    UNIT     BIT            ?BI?SPI0_ISTXFULL?SPI_0
   *DEL*:           000010H   BYTE   UNIT     CODE           ?PR?SPI0_ISSLAVESELECTED?SPI_0
   *DEL*:           000000H.1 BIT    UNIT     BIT            ?BI?SPI0_ISSLAVESELECTED?SPI_0
   *DEL*:           000010H   BYTE   UNIT     CODE           ?PR?SPI0_ISSHIFTEMPTY?SPI_0
   *DEL*:           000000H.1 BIT    UNIT     BIT            ?BI?SPI0_ISSHIFTEMPTY?SPI_0
   *DEL*:           00000FH   BYTE   UNIT     CODE           ?PR?SPI0_ISRXEMPTY?SPI_0
   *DEL*:           000000H.1 BIT    UNIT     BIT            ?BI?SPI0_ISRXEMPTY?SPI_0
   *DEL*:           000038H   BYTE   UNIT     CODE           ?PR?_SPI0_INIT?SPI_0
   *DEL*:           000000H.2 BIT    UNIT     BIT            ?BI?_SPI0_INIT?SPI_0
   *DEL*:           000035H   BYTE   UNIT     CODE           ?PR?_SPI0_SETCLOCKDIVIDER?SPI_0
   *DEL*:           00000DH   BYTE   UNIT     CODE           ?PR?SPI0_RESET?SPI_0
   *DEL*:           000013H   BYTE   UNIT     CODE           ?PR?SPI0_ISFIFOTXREQ?SPI_0
   *DEL*:           000000H.1 BIT    UNIT     BIT            ?BI?SPI0_ISFIFOTXREQ?SPI_0
   *DEL*:           000013H   BYTE   UNIT     CODE           ?PR?SPI0_ISFIFORXREQ?SPI_0
   *DEL*:           000000H.1 BIT    UNIT     BIT            ?BI?SPI0_ISFIFORXREQ?SPI_0
   *DEL*:           00000DH   BYTE   UNIT     CODE           ?PR?SPI0_GETRXFIFOCOUNT?SPI_0
   *DEL*:           000010H   BYTE   UNIT     CODE           ?PR?SPI0_GETTXFIFOCOUNT?SPI_0
   *DEL*:           000037H   BYTE   UNIT     CODE           ?PR?_SPI0_CONFIGUREFIFO?SPI_0
   *DEL*:           00002EH   BYTE   UNIT     CODE           ?PR?SPI0_ABORTTRANSFER?SPI_0
   *DEL*:           000006H   BYTE   UNIT     CODE           ?PR?SPI0_BYTESREMAINING?SPI_0
   *DEL*:           0000CCH   BYTE   UNIT     CODE           ?PR?_TRANSITIONDEMOWAVEFORM?FUNCTION_GENERATOR
   *DEL*:           00005EH   BYTE   UNIT     CODE           ?PR?_TRANSITIONDEMOFREQUENCY?FUNCTION_GENERATOR
   *DEL*:           00001FH   BYTE   UNIT     CODE           ?PR?GETJOYSTICK?FUNCTION_GENERATOR
   *DEL*:           000016H   BYTE   UNIT     CODE           ?PR?GETWAITJOYSTICK?FUNCTION_GENERATOR
   *DEL*:           000001H   BYTE   UNIT     XDATA          ?XD?GETWAITJOYSTICK?FUNCTION_GENERATOR
   *DEL*:           000019H   BYTE   UNIT     CODE           ?PR?_PROCESSINPUT?FUNCTION_GENERATOR
   *DEL*:           000070H   BYTE   UNIT     CODE           ?PR?_DRAWSCREENSPRITE?FUNCTION_GENERATOR
   *DEL*:           000007H   BYTE   UNIT     XDATA          ?XD?_DRAWSCREENSPRITE?FUNCTION_GENERATOR
   *DEL*:           00009CH   BYTE   UNIT     CODE           ?PR?DRAWSCREENWAVEFORM?FUNCTION_GENERATOR
   *DEL*:           000002H   BYTE   UNIT     XDATA          ?XD?DRAWSCREENWAVEFORM?FUNCTION_GENERATOR
   *DEL*:           00003DH   BYTE   UNIT     CODE           ?PR?DRAWSCREENFREQUENCY?FUNCTION_GENERATOR
   *DEL*:           000016H   BYTE   UNIT     XDATA          ?XD?DRAWSCREENFREQUENCY?FUNCTION_GENERATOR
   *DEL*:           00006BH   BYTE   UNIT     CODE           ?PR?DRAWSPLASH?FUNCTION_GENERATOR
   *DEL*:           000002H   BYTE   UNIT     XDATA          ?XD?DRAWSPLASH?FUNCTION_GENERATOR
   *DEL*:           00002AH   BYTE   UNIT     CODE           ?PR?DRAWSCREENSTATICSPRITES?FUNCTION_GENERATOR
   *DEL*:           000006H   BYTE   UNIT     CODE           ?PR?DRAWSCREEN?FUNCTION_GENERATOR
   *DEL*:           000024H   BYTE   UNIT     CODE           ?PR?SYNCHFRAME?FUNCTION_GENERATOR
   *DEL*:           000017H   BYTE   UNIT     CODE           ?PR?FUNCTIONGENERATOR_MAIN?FUNCTION_GENERATOR

LX51 LINKER/LOCATER V4.66.30.0                                                        05/06/2017  23:10:53  PAGE 5




OVERLAY MAP OF MODULE:   EFM8BB3_FUNCTIONGENERATOR.OMF.CRBUILD (JOYSTICK)


FUNCTION/MODULE                                BIT_GROUP   DATA_GROUP   XDATA_GROUP
--> CALLED FUNCTION/MODULE                    START  STOP  START  STOP  START  STOP
===================================================================================
TIMER2_ISR/SPI                                ----- -----  ----- -----  ----- -----
  +--> _SPI0_TRANSFER/SPI_0

_SPI0_TRANSFER/SPI_0                          ----- -----  ----- -----  0014H 0018H
  +--> SPI0_INTERNALINIT/SPI_0

SPI0_INTERNALINIT/SPI_0                       ----- -----  ----- -----  ----- -----

*** NEW ROOT ********************************

TIMER3_ISR/TICK                               ----- -----  ----- -----  ----- -----

*** NEW ROOT ********************************

SPI0_ISR/SPI_0                                ----- -----  ----- -----  0019H 0019H
  +--> SPI0_TRANSFERCOMPLETECB/SPI

SPI0_TRANSFERCOMPLETECB/SPI                   ----- -----  ----- -----  ----- -----

*** NEW ROOT ********************************

?C_C51STARTUP                                 ----- -----  ----- -----  ----- -----
  +--> MAIN/MAIN
  +--> ?C_INITSEG

MAIN/MAIN                                     ----- -----  ----- -----  001AH 001AH
  +--> ENTER_DEFAULTMODE_FROM_RESET/INITDEVICE
  +--> DRAWCHARACTER/FUNCTION_GENERATOR

ENTER_DEFAULTMODE_FROM_RESET/INITDEVICE       ----- -----  ----- -----  001BH 001BH
  +--> WDT_0_ENTER_DEFAULTMODE_FROM_RESET/INITDEVICE
  +--> PORTS_0_ENTER_DEFAULTMODE_FROM_RESET/INITDEVICE
  +--> PORTS_1_ENTER_DEFAULTMODE_FROM_RESET/INITDEVICE
  +--> PORTS_2_ENTER_DEFAULTMODE_FROM_RESET/INITDEVICE
  +--> PORTS_3_ENTER_DEFAULTMODE_FROM_RESET/INITDEVICE
  +--> PBCFG_0_ENTER_DEFAULTMODE_FROM_RESET/INITDEVICE
  +--> ADC_0_ENTER_DEFAULTMODE_FROM_RESET/INITDEVICE
  +--> DAC_0_ENTER_DEFAULTMODE_FROM_RESET/INITDEVICE
  +--> DAC_1_ENTER_DEFAULTMODE_FROM_RESET/INITDEVICE
  +--> DACGCF_0_ENTER_DEFAULTMODE_FROM_RESET/INITDEVICE
  +--> VREF_0_ENTER_DEFAULTMODE_FROM_RESET/INITDEVICE
  +--> CLOCK_0_ENTER_DEFAULTMODE_FROM_RESET/INITDEVICE
  +--> TIMER01_0_ENTER_DEFAULTMODE_FROM_RESET/INITDEVICE
  +--> TIMER16_3_ENTER_DEFAULTMODE_FROM_RESET/INITDEVICE
  +--> TIMER16_4_ENTER_DEFAULTMODE_FROM_RESET/INITDEVICE
  +--> TIMER_SETUP_0_ENTER_DEFAULTMODE_FROM_RESET/INITDEVICE
  +--> SPI_0_ENTER_DEFAULTMODE_FROM_RESET/INITDEVICE
  +--> INTERRUPT_0_ENTER_DEFAULTMODE_FROM_RESET/INITDEVICE
  +--> UART_0_ENTER_DEFAULTMODE_FROM_RESET/INITDEVICE

WDT_0_ENTER_DEFAULTMODE_FROM_RESET/INITD+     ----- -----  ----- -----  ----- -----
... EVICE

PORTS_0_ENTER_DEFAULTMODE_FROM_RESET/INI+     ----- -----  ----- -----  ----- -----
LX51 LINKER/LOCATER V4.66.30.0                                                        05/06/2017  23:10:53  PAGE 6


... TDEVICE

PORTS_1_ENTER_DEFAULTMODE_FROM_RESET/INI+     ----- -----  ----- -----  ----- -----
... TDEVICE

PORTS_2_ENTER_DEFAULTMODE_FROM_RESET/INI+     ----- -----  ----- -----  ----- -----
... TDEVICE

PORTS_3_ENTER_DEFAULTMODE_FROM_RESET/INI+     ----- -----  ----- -----  ----- -----
... TDEVICE

PBCFG_0_ENTER_DEFAULTMODE_FROM_RESET/INI+     ----- -----  ----- -----  ----- -----
... TDEVICE

ADC_0_ENTER_DEFAULTMODE_FROM_RESET/INITD+     ----- -----  ----- -----  ----- -----
... EVICE

DAC_0_ENTER_DEFAULTMODE_FROM_RESET/INITD+     ----- -----  ----- -----  ----- -----
... EVICE

DAC_1_ENTER_DEFAULTMODE_FROM_RESET/INITD+     ----- -----  ----- -----  ----- -----
... EVICE

DACGCF_0_ENTER_DEFAULTMODE_FROM_RESET/IN+     ----- -----  ----- -----  ----- -----
... ITDEVICE

VREF_0_ENTER_DEFAULTMODE_FROM_RESET/INIT+     ----- -----  ----- -----  ----- -----
... DEVICE

CLOCK_0_ENTER_DEFAULTMODE_FROM_RESET/INI+     ----- -----  ----- -----  ----- -----
... TDEVICE

TIMER01_0_ENTER_DEFAULTMODE_FROM_RESET/I+     ----- -----  ----- -----  ----- -----
... NITDEVICE

TIMER16_3_ENTER_DEFAULTMODE_FROM_RESET/I+     ----- -----  ----- -----  ----- -----
... NITDEVICE

TIMER16_4_ENTER_DEFAULTMODE_FROM_RESET/I+     ----- -----  ----- -----  ----- -----
... NITDEVICE

TIMER_SETUP_0_ENTER_DEFAULTMODE_FROM_RES+     ----- -----  ----- -----  ----- -----
... ET/INITDEVICE

SPI_0_ENTER_DEFAULTMODE_FROM_RESET/INITD+     ----- -----  ----- -----  ----- -----
... EVICE

INTERRUPT_0_ENTER_DEFAULTMODE_FROM_RESET+     ----- -----  ----- -----  ----- -----
... /INITDEVICE

UART_0_ENTER_DEFAULTMODE_FROM_RESET/INIT+     ----- -----  ----- -----  ----- -----
... DEVICE

DRAWCHARACTER/FUNCTION_GENERATOR              ----- -----  ----- -----  001BH 009BH
  +--> GETCHAR/GETCHAR
  +--> ?CO?FUNCTION_GENERATOR
  +--> PRINTF/PRINTF
  +--> _DRAWSCREENTEXT/FUNCTION_GENERATOR

GETCHAR/GETCHAR                               ----- -----  ----- -----  ----- -----
  +--> _GETKEY/RETARGETIO
  +--> _PUTCHAR/RETARGETIO
LX51 LINKER/LOCATER V4.66.30.0                                                        05/06/2017  23:10:53  PAGE 7



_GETKEY/RETARGETIO                            ----- -----  ----- -----  ----- -----
  +--> RETARGET_READCHAR/RETARGETSERIAL

RETARGET_READCHAR/RETARGETSERIAL              ----- -----  ----- -----  ----- -----

_PUTCHAR/RETARGETIO                           ----- -----  ----- -----  ----- -----
  +--> _RETARGET_WRITECHAR/RETARGETSERIAL

_RETARGET_WRITECHAR/RETARGETSERIAL            ----- -----  ----- -----  ----- -----

?CO?FUNCTION_GENERATOR                        ----- -----  ----- -----  ----- -----

PRINTF/PRINTF                                 20H.0 21H.0  0010H 0014H  009CH 00C3H
  +--> _PUTCHAR/RETARGETIO

_DRAWSCREENTEXT/FUNCTION_GENERATOR            ----- -----  ----- -----  009CH 00A0H
  +--> _RENDER_CLRLINE/RENDER
  +--> _RENDER_STRLINE/RENDER
  +--> _DISP_WRITELINE/DISP

_RENDER_CLRLINE/RENDER                        ----- -----  ----- -----  ----- -----

_RENDER_STRLINE/RENDER                        ----- -----  ----- -----  00A1H 00AAH
  +--> ?CO?RENDER

?CO?RENDER                                    ----- -----  ----- -----  ----- -----

_DISP_WRITELINE/DISP                          ----- -----  ----- -----  00A1H 00B8H
  +--> _SOFTWAREVCOMTOGGLE/DISP
  +--> _BITREVERSE/DISP
  +--> _SPI_STARTTRANSFER/SPI

_SOFTWAREVCOMTOGGLE/DISP                      ----- -----  ----- -----  00B9H 00B9H
  +--> GETTICKCOUNT/TICK

GETTICKCOUNT/TICK                             ----- -----  ----- -----  ----- -----

_BITREVERSE/DISP                              ----- -----  ----- -----  ----- -----

_SPI_STARTTRANSFER/SPI                        ----- -----  ----- -----  00B9H 00BBH

?C_INITSEG                                    ----- -----  ----- -----  ----- -----
  +--> ?CO?FUNCTION_GENERATOR

*** NEW ROOT ********************************

TIMER4_ISR/FUNCTION_GENERATOR                 ----- -----  ----- -----  00C4H 00C5H

*** NEW ROOT ********************************

PMATCH_ISR/FUNCTION_GENERATOR                 ----- -----  ----- -----  ----- -----



PUBLIC SYMBOLS OF MODULE:  EFM8BB3_FUNCTIONGENERATOR.OMF.CRBUILD (JOYSTICK)


      VALUE       CLASS    TYPE      PUBLIC SYMBOL NAME
      =================================================
      0200009CH   XDATA    ---       ?_PRINTF517?BYTE
      0200009CH   XDATA    ---       ?_PRINTF?BYTE
LX51 LINKER/LOCATER V4.66.30.0                                                        05/06/2017  23:10:53  PAGE 8


*DEL*:00000000H   XDATA    BYTE      ?_RENDER_SpriteLine?BYTE
*DEL*:00000000H   XDATA    BYTE      ?_RENDER_SpriteLineForeground?BYTE
      020000A1H   XDATA    BYTE      ?_RENDER_StrLine?BYTE
*DEL*:00000000H.0 BIT      BIT       ?_SPI0_init?BIT
*DEL*:00000000H   XDATA    BYTE      ?_SPI0_pollTransfer?BYTE
      02000014H   XDATA    BYTE      ?_SPI0_transfer?BYTE
      0200009CH   XDATA    ---       ?_SPRINTF517?BYTE
      0200009CH   XDATA    ---       ?_SPRINTF?BYTE
      020000FFH   XDATA    ---       ?_UNGETCHAR?BYTE
      01002673H   CODE     ---       ?C?CCASE
      00000021H.6 BIT      ---       ?C?CHARLOADED
      01002497H   CODE     ---       ?C?CLDOPTR
      0100247EH   CODE     ---       ?C?CLDPTR
      00000000H   NUMBER   ---       ?C?CODESEG
      01002641H   CODE     ---       ?C?CSTPTR
      010024C4H   CODE     ---       ?C?IILDX
      01002614H   CODE     ---       ?C?LIMUL
      010024DAH   CODE     ---       ?C?LMUL
      01002608H   CODE     ---       ?C?LSTXDATA
      01002653H   CODE     ---       ?C?PLDIXDATA
      0100266AH   CODE     ---       ?C?PSTXDATA
      01002BCCH   CODE     ---       ?C?SLDIV
      010025F7H   CODE     ---       ?C?ULCMP
      01002565H   CODE     ---       ?C?ULDIV
      00000000H   NUMBER   ---       ?C?XDATASEG
      0100289DH   CODE     ---       ?C_START
      01000000H   CODE     NEAR LAB  ?C_STARTUP
      01002C8CH   CODE     ---       _BitReverse
*DEL*:00000000H   CODE     ---       _DISP_ClearLine
      01002A7AH   CODE     ---       _DISP_WriteLine
      0100002EH   CODE     ---       _getkey
*DEL*:00000000H   CODE     ---       _JOYSTICK_convert_mv_to_direction
      01002184H   CODE     ---       _PRINTF
      01002184H   CODE     ---       _PRINTF517
      01002E01H   CODE     ---       _putchar
      01002D6EH   CODE     ---       _RENDER_ClrLine
*DEL*:00000000H   CODE     ---       _RENDER_GetStrSize
*DEL*:00000000H   CODE     ---       _RENDER_LineSegmentLine
*DEL*:00000000H   CODE     ---       _RENDER_PixelLine
*DEL*:00000000H   CODE     ---       _RENDER_SpriteLine
*DEL*:00000000H   CODE     ---       _RENDER_SpriteLineForeground
      01002699H   CODE     ---       _RENDER_StrLine
      01000076H   CODE     ---       _RETARGET_WriteChar
      01002C51H   CODE     ---       _SoftwareVcomToggle
*DEL*:00000000H   CODE     ---       _SPI0_clearIntFlags
*DEL*:00000000H   CODE     ---       _SPI0_configureFifo
*DEL*:00000000H   CODE     ---       _SPI0_init
*DEL*:00000000H   CODE     ---       _SPI0_pollTransfer
*DEL*:00000000H   CODE     ---       _SPI0_pollWriteByte
*DEL*:00000000H   CODE     ---       _SPI0_setClockDivider
      0100294CH   CODE     ---       _SPI0_transfer
*DEL*:00000000H   CODE     ---       _SPI0_writeByte
      01002B35H   CODE     ---       _SPI_StartTransfer
      0100217EH   CODE     ---       _SPRINTF
      0100217EH   CODE     ---       _SPRINTF517
*DEL*:00000000H   CODE     ---       _Wait
*SFR* 000000D0H.6 DATA     BIT       AC
*SFR* 000000E0H   DATA     BYTE      ACC
*SFR* 000000E0H   DATA     BIT       ACC_ACC0
*SFR* 000000E0H.1 DATA     BIT       ACC_ACC1
*SFR* 000000E0H.2 DATA     BIT       ACC_ACC2
*SFR* 000000E0H.3 DATA     BIT       ACC_ACC3
LX51 LINKER/LOCATER V4.66.30.0                                                        05/06/2017  23:10:53  PAGE 9


*SFR* 000000E0H.4 DATA     BIT       ACC_ACC4
*SFR* 000000E0H.5 DATA     BIT       ACC_ACC5
*SFR* 000000E0H.6 DATA     BIT       ACC_ACC6
*SFR* 000000E0H.7 DATA     BIT       ACC_ACC7
*SFR* 000000BDH   DATA     WORD      ADC0
*SFR* 000000B5H   DATA     WORD      ADC0ASA
*SFR* 000000B6H   DATA     BYTE      ADC0ASAH
*SFR* 000000B5H   DATA     BYTE      ADC0ASAL
*SFR* 000000A1H   DATA     BYTE      ADC0ASCF
*SFR* 000000C7H   DATA     BYTE      ADC0ASCT
*SFR* 000000BCH   DATA     BYTE      ADC0CF0
*SFR* 000000B9H   DATA     BYTE      ADC0CF1
*SFR* 000000DFH   DATA     BYTE      ADC0CF2
*SFR* 000000E8H   DATA     BYTE      ADC0CN0
*SFR* 000000E8H.4 DATA     BIT       ADC0CN0_ADBUSY
*SFR* 000000E8H.7 DATA     BIT       ADC0CN0_ADEN
*SFR* 000000E8H.1 DATA     BIT       ADC0CN0_ADGN0
*SFR* 000000E8H.2 DATA     BIT       ADC0CN0_ADGN1
*SFR* 000000E8H.5 DATA     BIT       ADC0CN0_ADINT
*SFR* 000000E8H.3 DATA     BIT       ADC0CN0_ADWINT
*SFR* 000000E8H.6 DATA     BIT       ADC0CN0_IPOEN
*SFR* 000000E8H   DATA     BIT       ADC0CN0_TEMPE
*SFR* 000000B2H   DATA     BYTE      ADC0CN1
*SFR* 000000B3H   DATA     BYTE      ADC0CN2
*SFR* 000000C3H   DATA     WORD      ADC0GT
*SFR* 000000C4H   DATA     BYTE      ADC0GTH
*SFR* 000000C3H   DATA     BYTE      ADC0GTL
*SFR* 000000BEH   DATA     BYTE      ADC0H
*SFR* 000000BDH   DATA     BYTE      ADC0L
*SFR* 000000C5H   DATA     WORD      ADC0LT
*SFR* 000000C6H   DATA     BYTE      ADC0LTH
*SFR* 000000C5H   DATA     BYTE      ADC0LTL
*SFR* 000000BBH   DATA     BYTE      ADC0MX
      01002D5BH   CODE     ---       ADC_0_enter_DefaultMode_from_RESET
*SFR* 000000F0H   DATA     BYTE      B
*SFR* 000000F0H   DATA     BIT       B_B0
*SFR* 000000F0H.1 DATA     BIT       B_B1
*SFR* 000000F0H.2 DATA     BIT       B_B2
*SFR* 000000F0H.3 DATA     BIT       B_B3
*SFR* 000000F0H.4 DATA     BIT       B_B4
*SFR* 000000F0H.5 DATA     BIT       B_B5
*SFR* 000000F0H.6 DATA     BIT       B_B6
*SFR* 000000F0H.7 DATA     BIT       B_B7
*SFR* 000000A0H.2 DATA     BIT       BC_EN
*SFR* 000000A0H.2 DATA     BIT       BSP_BC_EN
*SFR* 000000A0H.6 DATA     BIT       BSP_DISP_CS
*SFR* 000000B0H.4 DATA     BIT       BSP_DISP_EN
*SFR* 00000090H.7 DATA     BIT       BSP_JOYSTICK
*SFR* 00000090H.5 DATA     BIT       BSP_LED_B
*SFR* 00000090H.4 DATA     BIT       BSP_LED_G
*SFR* 00000090H.6 DATA     BIT       BSP_LED_R
*SFR* 00000080H.2 DATA     BIT       BSP_PB0
*SFR* 00000080H.3 DATA     BIT       BSP_PB1
*SFR* 0000008EH   DATA     BYTE      CKCON0
*SFR* 000000A6H   DATA     BYTE      CKCON1
*SFR* 000000C6H   DATA     BYTE      CLEN0
*SFR* 000000C7H   DATA     BYTE      CLIE0
*SFR* 000000E8H   DATA     BYTE      CLIF0
*SFR* 000000E8H   DATA     BIT       CLIF0_C0FIF
*SFR* 000000E8H.1 DATA     BIT       CLIF0_C0RIF
*SFR* 000000E8H.2 DATA     BIT       CLIF0_C1FIF
*SFR* 000000E8H.3 DATA     BIT       CLIF0_C1RIF
LX51 LINKER/LOCATER V4.66.30.0                                                        05/06/2017  23:10:53  PAGE 10


*SFR* 000000E8H.4 DATA     BIT       CLIF0_C2FIF
*SFR* 000000E8H.5 DATA     BIT       CLIF0_C2RIF
*SFR* 000000E8H.6 DATA     BIT       CLIF0_C3FIF
*SFR* 000000E8H.7 DATA     BIT       CLIF0_C3RIF
*SFR* 000000A9H   DATA     BYTE      CLKSEL
      01000025H   CODE     ---       CLOCK_0_enter_DefaultMode_from_RESET
*SFR* 000000D1H   DATA     BYTE      CLOUT0
*SFR* 000000B1H   DATA     BYTE      CLU0CF
*SFR* 000000AFH   DATA     BYTE      CLU0FN
*SFR* 00000084H   DATA     BYTE      CLU0MX
*SFR* 000000B3H   DATA     BYTE      CLU1CF
*SFR* 000000B2H   DATA     BYTE      CLU1FN
*SFR* 00000085H   DATA     BYTE      CLU1MX
*SFR* 000000B6H   DATA     BYTE      CLU2CF
*SFR* 000000B5H   DATA     BYTE      CLU2FN
*SFR* 00000091H   DATA     BYTE      CLU2MX
*SFR* 000000BFH   DATA     BYTE      CLU3CF
*SFR* 000000BEH   DATA     BYTE      CLU3FN
*SFR* 000000AEH   DATA     BYTE      CLU3MX
*SFR* 0000009BH   DATA     BYTE      CMP0CN0
*SFR* 00000099H   DATA     BYTE      CMP0CN1
*SFR* 0000009DH   DATA     BYTE      CMP0MD
*SFR* 0000009FH   DATA     BYTE      CMP0MX
*SFR* 000000BFH   DATA     BYTE      CMP1CN0
*SFR* 000000ACH   DATA     BYTE      CMP1CN1
*SFR* 000000ABH   DATA     BYTE      CMP1MD
*SFR* 000000AAH   DATA     BYTE      CMP1MX
*SFR* 000000CEH   DATA     BYTE      CRC0CN0
*SFR* 00000086H   DATA     BYTE      CRC0CN1
*SFR* 000000D3H   DATA     BYTE      CRC0CNT
*SFR* 000000CBH   DATA     BYTE      CRC0DAT
*SFR* 000000CFH   DATA     BYTE      CRC0FLIP
*SFR* 000000CAH   DATA     BYTE      CRC0IN
*SFR* 000000D2H   DATA     BYTE      CRC0ST
*SFR* 000000D0H.7 DATA     BIT       CY
*SFR* 00000091H   DATA     BYTE      DAC0CF0
*SFR* 00000092H   DATA     BYTE      DAC0CF1
*SFR* 00000085H   DATA     BYTE      DAC0H
*SFR* 00000084H   DATA     BYTE      DAC0L
*SFR* 00000093H   DATA     BYTE      DAC1CF0
*SFR* 00000094H   DATA     BYTE      DAC1CF1
*SFR* 0000008AH   DATA     BYTE      DAC1H
*SFR* 00000089H   DATA     BYTE      DAC1L
*SFR* 00000095H   DATA     BYTE      DAC2CF0
*SFR* 00000096H   DATA     BYTE      DAC2CF1
*SFR* 0000008CH   DATA     BYTE      DAC2H
*SFR* 0000008BH   DATA     BYTE      DAC2L
*SFR* 0000009AH   DATA     BYTE      DAC3CF0
*SFR* 0000009CH   DATA     BYTE      DAC3CF1
*SFR* 0000008EH   DATA     BYTE      DAC3H
*SFR* 0000008DH   DATA     BYTE      DAC3L
      01002DF3H   CODE     ---       DAC_0_enter_DefaultMode_from_RESET
      01002E0DH   CODE     ---       DAC_1_enter_DefaultMode_from_RESET
*SFR* 00000088H   DATA     BYTE      DACGCF0
*SFR* 00000088H.3 DATA     BIT       DACGCF0_D01REFSL
*SFR* 00000088H.2 DATA     BIT       DACGCF0_D1AMEN
*SFR* 00000088H   DATA     BIT       DACGCF0_D1SRC0
*SFR* 00000088H.1 DATA     BIT       DACGCF0_D1SRC1
*SFR* 00000088H.7 DATA     BIT       DACGCF0_D23REFSL
*SFR* 00000088H.6 DATA     BIT       DACGCF0_D3AMEN
*SFR* 00000088H.4 DATA     BIT       DACGCF0_D3SRC0
*SFR* 00000088H.5 DATA     BIT       DACGCF0_D3SRC1
LX51 LINKER/LOCATER V4.66.30.0                                                        05/06/2017  23:10:53  PAGE 11


*SFR* 00000098H   DATA     BYTE      DACGCF1
*SFR* 00000098H   DATA     BIT       DACGCF1_D0UDIS
*SFR* 00000098H.1 DATA     BIT       DACGCF1_D1UDIS
*SFR* 00000098H.2 DATA     BIT       DACGCF1_D2UDIS
*SFR* 00000098H.3 DATA     BIT       DACGCF1_D3UDIS
*SFR* 000000A2H   DATA     BYTE      DACGCF2
      01002E11H   CODE     ---       DACGCF_0_enter_DefaultMode_from_RESET
*SFR* 000000ADH   DATA     BYTE      DERIVID
*SFR* 000000B5H   DATA     BYTE      DEVICEID
*DEL*:00000000H   CODE     ---       DISP_ClearAll
*SFR* 000000B0H.4 DATA     BIT       DISP_EN
*DEL*:00000000H   CODE     ---       DISP_Init
*SFR* 00000082H   DATA     WORD      DP
*SFR* 00000083H   DATA     BYTE      DPH
*SFR* 00000082H   DATA     BYTE      DPL
      01002C10H   CODE     ---       drawCharacter
*SFR* 000000A8H.7 DATA     BIT       EA
*SFR* 000000E6H   DATA     BYTE      EIE1
*SFR* 000000F3H   DATA     BYTE      EIE2
*SFR* 000000BBH   DATA     BYTE      EIP1
*SFR* 000000EEH   DATA     BYTE      EIP1H
*SFR* 000000EDH   DATA     BYTE      EIP2
*SFR* 000000F6H   DATA     BYTE      EIP2H
*SFR* 000000E7H   DATA     BYTE      EMI0CN
      01002B86H   CODE     ---       enter_DefaultMode_from_RESET
*SFR* 000000A8H.4 DATA     BIT       ES
*SFR* 000000A8H.1 DATA     BIT       ET0
*SFR* 000000A8H.3 DATA     BIT       ET1
*SFR* 000000A8H   DATA     BIT       EX0
*SFR* 000000A8H.2 DATA     BIT       EX1
*SFR* 000000D0H.5 DATA     BIT       F0
*SFR* 000000B7H   DATA     BYTE      FLKEY
*DEL*:00000000H   CODE     ---       FunctionGenerator_main
      01002D34H   CODE     ---       GETCHAR
      01002CEFH   CODE     ---       GetTickCount
*SFR* 000000C7H   DATA     BYTE      HFO0CAL
*SFR* 000000D6H   DATA     BYTE      HFO1CAL
*SFR* 000000EFH   DATA     BYTE      HFOCN
*SFR* 000000FFH   DATA     BYTE      I2C0ADM
*SFR* 000000BAH   DATA     BYTE      I2C0CN0
*SFR* 000000BCH   DATA     BYTE      I2C0DIN
*SFR* 000000BBH   DATA     BYTE      I2C0DOUT
*SFR* 000000ADH   DATA     BYTE      I2C0FCN0
*SFR* 000000ABH   DATA     BYTE      I2C0FCN1
*SFR* 000000F5H   DATA     BYTE      I2C0FCT
*SFR* 000000BDH   DATA     BYTE      I2C0SLAD
*SFR* 000000B9H   DATA     BYTE      I2C0STAT
*SFR* 000000A8H   DATA     BYTE      IE
*SFR* 00000088H.1 DATA     BIT       IE0
*SFR* 00000088H.3 DATA     BIT       IE1
*SFR* 000000A8H.7 DATA     BIT       IE_EA
*SFR* 000000A8H.4 DATA     BIT       IE_ES0
*SFR* 000000A8H.6 DATA     BIT       IE_ESPI0
*SFR* 000000A8H.1 DATA     BIT       IE_ET0
*SFR* 000000A8H.3 DATA     BIT       IE_ET1
*SFR* 000000A8H.5 DATA     BIT       IE_ET2
*SFR* 000000A8H   DATA     BIT       IE_EX0
*SFR* 000000A8H.2 DATA     BIT       IE_EX1
*SFR* 000000B0H.2 DATA     BIT       INT0
*SFR* 000000B0H.3 DATA     BIT       INT1
      01002D1EH   CODE     ---       INTERRUPT_0_enter_DefaultMode_from_RESET
*SFR* 000000B8H   DATA     BYTE      IP
LX51 LINKER/LOCATER V4.66.30.0                                                        05/06/2017  23:10:53  PAGE 12


*SFR* 000000B8H.4 DATA     BIT       IP_PS0
*SFR* 000000B8H.6 DATA     BIT       IP_PSPI0
*SFR* 000000B8H.1 DATA     BIT       IP_PT0
*SFR* 000000B8H.3 DATA     BIT       IP_PT1
*SFR* 000000B8H.5 DATA     BIT       IP_PT2
*SFR* 000000B8H   DATA     BIT       IP_PX0
*SFR* 000000B8H.2 DATA     BIT       IP_PX1
*SFR* 000000F2H   DATA     BYTE      IPH
*SFR* 00000088H   DATA     BIT       IT0
*SFR* 000000E4H   DATA     BYTE      IT01CF
*SFR* 00000088H.2 DATA     BIT       IT1
      020000DEH   XDATA    BYTE      killSplashFlag
      020000F9H   XDATA    WORD      LastVcomToggle
*SFR* 000000B1H   DATA     BYTE      LFO0CN
      020000CCH   XDATA    ---       Line
      01002DB5H   CODE     ---       main
*SFR* 000000D0H.2 DATA     BIT       OV
*SFR* 000000D0H   DATA     BIT       P
*SFR* 00000080H   DATA     BYTE      P0
*SFR* 00000080H   DATA     BIT       P0_B0
*SFR* 00000080H.1 DATA     BIT       P0_B1
*SFR* 00000080H.2 DATA     BIT       P0_B2
*SFR* 00000080H.3 DATA     BIT       P0_B3
*SFR* 00000080H.4 DATA     BIT       P0_B4
*SFR* 00000080H.5 DATA     BIT       P0_B5
*SFR* 00000080H.6 DATA     BIT       P0_B6
*SFR* 00000080H.7 DATA     BIT       P0_B7
*SFR* 000000FEH   DATA     BYTE      P0MASK
*SFR* 000000FDH   DATA     BYTE      P0MAT
*SFR* 000000F1H   DATA     BYTE      P0MDIN
*SFR* 000000A4H   DATA     BYTE      P0MDOUT
*SFR* 000000D4H   DATA     BYTE      P0SKIP
*SFR* 00000090H   DATA     BYTE      P1
*SFR* 00000090H   DATA     BIT       P1_B0
*SFR* 00000090H.1 DATA     BIT       P1_B1
*SFR* 00000090H.2 DATA     BIT       P1_B2
*SFR* 00000090H.3 DATA     BIT       P1_B3
*SFR* 00000090H.4 DATA     BIT       P1_B4
*SFR* 00000090H.5 DATA     BIT       P1_B5
*SFR* 00000090H.6 DATA     BIT       P1_B6
*SFR* 00000090H.7 DATA     BIT       P1_B7
*SFR* 000000EEH   DATA     BYTE      P1MASK
*SFR* 000000EDH   DATA     BYTE      P1MAT
*SFR* 000000F2H   DATA     BYTE      P1MDIN
*SFR* 000000A5H   DATA     BYTE      P1MDOUT
*SFR* 000000D5H   DATA     BYTE      P1SKIP
*SFR* 000000A0H   DATA     BYTE      P2
*SFR* 000000A0H   DATA     BIT       P2_B0
*SFR* 000000A0H.1 DATA     BIT       P2_B1
*SFR* 000000A0H.2 DATA     BIT       P2_B2
*SFR* 000000A0H.3 DATA     BIT       P2_B3
*SFR* 000000A0H.4 DATA     BIT       P2_B4
*SFR* 000000A0H.5 DATA     BIT       P2_B5
*SFR* 000000A0H.6 DATA     BIT       P2_B6
*SFR* 000000FCH   DATA     BYTE      P2MASK
*SFR* 000000FBH   DATA     BYTE      P2MAT
*SFR* 000000F3H   DATA     BYTE      P2MDIN
*SFR* 000000A6H   DATA     BYTE      P2MDOUT
*SFR* 000000CCH   DATA     BYTE      P2SKIP
*SFR* 000000B0H   DATA     BYTE      P3
*SFR* 000000B0H   DATA     BIT       P3_B0
*SFR* 000000B0H.1 DATA     BIT       P3_B1
LX51 LINKER/LOCATER V4.66.30.0                                                        05/06/2017  23:10:53  PAGE 13


*SFR* 000000B0H.2 DATA     BIT       P3_B2
*SFR* 000000B0H.3 DATA     BIT       P3_B3
*SFR* 000000B0H.4 DATA     BIT       P3_B4
*SFR* 000000B0H.7 DATA     BIT       P3_B7
*SFR* 000000F4H   DATA     BYTE      P3MDIN
*SFR* 0000009CH   DATA     BYTE      P3MDOUT
      01002DD7H   CODE     ---       PBCFG_0_enter_DefaultMode_from_RESET
*SFR* 000000F9H   DATA     WORD      PCA0
*SFR* 0000009EH   DATA     BYTE      PCA0CENT
*SFR* 0000009CH   DATA     BYTE      PCA0CLR
*SFR* 000000D8H   DATA     BYTE      PCA0CN0
*SFR* 000000D8H   DATA     BIT       PCA0CN0_CCF0
*SFR* 000000D8H.1 DATA     BIT       PCA0CN0_CCF1
*SFR* 000000D8H.2 DATA     BIT       PCA0CN0_CCF2
*SFR* 000000D8H.3 DATA     BIT       PCA0CN0_CCF3
*SFR* 000000D8H.4 DATA     BIT       PCA0CN0_CCF4
*SFR* 000000D8H.5 DATA     BIT       PCA0CN0_CCF5
*SFR* 000000D8H.7 DATA     BIT       PCA0CN0_CF
*SFR* 000000D8H.6 DATA     BIT       PCA0CN0_CR
*SFR* 000000FBH   DATA     WORD      PCA0CP0
*SFR* 000000E9H   DATA     WORD      PCA0CP1
*SFR* 000000EBH   DATA     WORD      PCA0CP2
*SFR* 000000F4H   DATA     WORD      PCA0CP3
*SFR* 00000084H   DATA     WORD      PCA0CP4
*SFR* 000000DDH   DATA     WORD      PCA0CP5
*SFR* 000000FCH   DATA     BYTE      PCA0CPH0
*SFR* 000000EAH   DATA     BYTE      PCA0CPH1
*SFR* 000000ECH   DATA     BYTE      PCA0CPH2
*SFR* 000000F5H   DATA     BYTE      PCA0CPH3
*SFR* 00000085H   DATA     BYTE      PCA0CPH4
*SFR* 000000DEH   DATA     BYTE      PCA0CPH5
*SFR* 000000FBH   DATA     BYTE      PCA0CPL0
*SFR* 000000E9H   DATA     BYTE      PCA0CPL1
*SFR* 000000EBH   DATA     BYTE      PCA0CPL2
*SFR* 000000F4H   DATA     BYTE      PCA0CPL3
*SFR* 00000084H   DATA     BYTE      PCA0CPL4
*SFR* 000000DDH   DATA     BYTE      PCA0CPL5
*SFR* 000000DAH   DATA     BYTE      PCA0CPM0
*SFR* 000000DBH   DATA     BYTE      PCA0CPM1
*SFR* 000000DCH   DATA     BYTE      PCA0CPM2
*SFR* 000000AEH   DATA     BYTE      PCA0CPM3
*SFR* 000000AFH   DATA     BYTE      PCA0CPM4
*SFR* 000000CCH   DATA     BYTE      PCA0CPM5
*SFR* 000000FAH   DATA     BYTE      PCA0H
*SFR* 000000F9H   DATA     BYTE      PCA0L
*SFR* 000000D9H   DATA     BYTE      PCA0MD
*SFR* 00000096H   DATA     BYTE      PCA0POL
*SFR* 000000F7H   DATA     BYTE      PCA0PWM
*SFR* 00000087H   DATA     BYTE      PCON
*SFR* 00000087H   DATA     BYTE      PCON0
*SFR* 000000CDH   DATA     BYTE      PCON1
*SFR* 000000C1H   DATA     BYTE      PFE0CN
      01000046H   CODE     ---       PMATCH_ISR
      01002D80H   CODE     ---       PORTS_0_enter_DefaultMode_from_RESET
      01002D92H   CODE     ---       PORTS_1_enter_DefaultMode_from_RESET
      01002DCDH   CODE     ---       PORTS_2_enter_DefaultMode_from_RESET
      01002E09H   CODE     ---       PORTS_3_enter_DefaultMode_from_RESET
*SFR* 000000A0H   DATA     BYTE      PPAGE_SFR
*SFR* 000000F6H   DATA     BYTE      PRTDRV
*SFR* 000000B8H.4 DATA     BIT       PS
*SFR* 0000008FH   DATA     BYTE      PSCTL
*SFR* 000000AAH   DATA     BYTE      PSTAT0
LX51 LINKER/LOCATER V4.66.30.0                                                        05/06/2017  23:10:53  PAGE 14


*SFR* 000000D0H   DATA     BYTE      PSW
*SFR* 000000D0H.6 DATA     BIT       PSW_AC
*SFR* 000000D0H.7 DATA     BIT       PSW_CY
*SFR* 000000D0H.5 DATA     BIT       PSW_F0
*SFR* 000000D0H.1 DATA     BIT       PSW_F1
*SFR* 000000D0H.2 DATA     BIT       PSW_OV
*SFR* 000000D0H   DATA     BIT       PSW_PARITY
*SFR* 000000D0H.3 DATA     BIT       PSW_RS0
*SFR* 000000D0H.4 DATA     BIT       PSW_RS1
*SFR* 000000B8H.1 DATA     BIT       PT0
*SFR* 000000B8H.3 DATA     BIT       PT1
*SFR* 000000B8H   DATA     BIT       PX0
*SFR* 000000B8H.2 DATA     BIT       PX1
*SFR* 00000098H.2 DATA     BIT       RB8
*SFR* 000000B0H.7 DATA     BIT       RD
*SFR* 000000D1H   DATA     BYTE      REF0CN
*SFR* 000000C9H   DATA     BYTE      REG0CN
*SFR* 00000098H.4 DATA     BIT       REN
      01002DEBH   CODE     ---       RETARGET_ReadChar
*SFR* 000000B6H   DATA     BYTE      REVID
*SFR* 00000098H   DATA     BIT       RI
*SFR* 000000D0H.3 DATA     BIT       RS0
*SFR* 000000D0H.4 DATA     BIT       RS1
*SFR* 000000EFH   DATA     BYTE      RSTSRC
*SFR* 000000B0H   DATA     BIT       RXD
      01001D19H   CODE     ---       sawtoothTable
*SFR* 00000094H   DATA     BYTE      SBCON1
*SFR* 00000096H   DATA     BYTE      SBRLH1
*SFR* 00000095H   DATA     BYTE      SBRLL1
*SFR* 00000099H   DATA     BYTE      SBUF
*SFR* 00000099H   DATA     BYTE      SBUF0
*SFR* 00000092H   DATA     BYTE      SBUF1
*SFR* 00000098H   DATA     BYTE      SCON
*SFR* 00000098H   DATA     BYTE      SCON0
*SFR* 00000098H.5 DATA     BIT       SCON0_MCE
*SFR* 00000098H.2 DATA     BIT       SCON0_RB8
*SFR* 00000098H.4 DATA     BIT       SCON0_REN
*SFR* 00000098H   DATA     BIT       SCON0_RI
*SFR* 00000098H.7 DATA     BIT       SCON0_SMODE
*SFR* 00000098H.3 DATA     BIT       SCON0_TB8
*SFR* 00000098H.1 DATA     BIT       SCON0_TI
*SFR* 000000C8H   DATA     BYTE      SCON1
*SFR* 000000C8H.7 DATA     BIT       SCON1_OVR
*SFR* 000000C8H.6 DATA     BIT       SCON1_PERR
*SFR* 000000C8H.2 DATA     BIT       SCON1_RBX
*SFR* 000000C8H.4 DATA     BIT       SCON1_REN
*SFR* 000000C8H   DATA     BIT       SCON1_RI
*SFR* 000000C8H.3 DATA     BIT       SCON1_TBX
*SFR* 000000C8H.1 DATA     BIT       SCON1_TI
*SFR* 000000A7H   DATA     BYTE      SFRPAGE
*SFR* 000000BCH   DATA     BYTE      SFRPGCN
*SFR* 000000D7H   DATA     BYTE      SFRSTACK
      01001719H   CODE     ---       sineTable
*SFR* 00000098H.7 DATA     BIT       SM0
*SFR* 00000098H.6 DATA     BIT       SM1
*SFR* 00000098H.5 DATA     BIT       SM2
*SFR* 000000D6H   DATA     BYTE      SMB0ADM
*SFR* 000000D7H   DATA     BYTE      SMB0ADR
*SFR* 000000C1H   DATA     BYTE      SMB0CF
*SFR* 000000C0H   DATA     BYTE      SMB0CN0
*SFR* 000000C0H.1 DATA     BIT       SMB0CN0_ACK
*SFR* 000000C0H.3 DATA     BIT       SMB0CN0_ACKRQ
LX51 LINKER/LOCATER V4.66.30.0                                                        05/06/2017  23:10:53  PAGE 15


*SFR* 000000C0H.2 DATA     BIT       SMB0CN0_ARBLOST
*SFR* 000000C0H.7 DATA     BIT       SMB0CN0_MASTER
*SFR* 000000C0H   DATA     BIT       SMB0CN0_SI
*SFR* 000000C0H.5 DATA     BIT       SMB0CN0_STA
*SFR* 000000C0H.4 DATA     BIT       SMB0CN0_STO
*SFR* 000000C0H.6 DATA     BIT       SMB0CN0_TXMODE
*SFR* 000000C2H   DATA     BYTE      SMB0DAT
*SFR* 000000C3H   DATA     BYTE      SMB0FCN0
*SFR* 000000C4H   DATA     BYTE      SMB0FCN1
*SFR* 000000EFH   DATA     BYTE      SMB0FCT
*SFR* 000000C5H   DATA     BYTE      SMB0RXLN
*SFR* 000000ACH   DATA     BYTE      SMB0TC
*SFR* 00000093H   DATA     BYTE      SMOD1
*SFR* 00000081H   DATA     BYTE      SP
*DEL*:00000000H   CODE     ---       SPI0_abortTransfer
*DEL*:00000000H   CODE     ---       SPI0_bytesRemaining
*DEL*:00000000H   CODE     ---       SPI0_getIntFlags
*DEL*:00000000H   CODE     ---       SPI0_getRxFifoCount
*DEL*:00000000H   CODE     ---       SPI0_getTxFifoCount
*DEL*:00000000H   CODE     ---       SPI0_isBusy
*DEL*:00000000H   CODE     ---       SPI0_isFifoRxReq
*DEL*:00000000H   CODE     ---       SPI0_isFifoTxReq
      0100279AH   CODE     ---       SPI0_ISR
*DEL*:00000000H   CODE     ---       SPI0_isRxEmpty
*DEL*:00000000H   CODE     ---       SPI0_isShiftEmpty
*DEL*:00000000H   CODE     ---       SPI0_isSlaveSelected
*DEL*:00000000H   CODE     ---       SPI0_isTxFull
*DEL*:00000000H   CODE     ---       SPI0_pollReadByte
*DEL*:00000000H   CODE     ---       SPI0_readByte
*DEL*:00000000H   CODE     ---       SPI0_reset
      01002D07H   CODE     ---       SPI0_transferCompleteCb
*SFR* 000000A1H   DATA     BYTE      SPI0CFG
*SFR* 000000A2H   DATA     BYTE      SPI0CKR
*SFR* 000000F8H   DATA     BYTE      SPI0CN0
*SFR* 000000F8H.5 DATA     BIT       SPI0CN0_MODF
*SFR* 000000F8H.2 DATA     BIT       SPI0CN0_NSSMD0
*SFR* 000000F8H.3 DATA     BIT       SPI0CN0_NSSMD1
*SFR* 000000F8H.4 DATA     BIT       SPI0CN0_RXOVRN
*SFR* 000000F8H   DATA     BIT       SPI0CN0_SPIEN
*SFR* 000000F8H.7 DATA     BIT       SPI0CN0_SPIF
*SFR* 000000F8H.1 DATA     BIT       SPI0CN0_TXNF
*SFR* 000000F8H.6 DATA     BIT       SPI0CN0_WCOL
*SFR* 000000A3H   DATA     BYTE      SPI0DAT
*SFR* 0000009AH   DATA     BYTE      SPI0FCN0
*SFR* 0000009BH   DATA     BYTE      SPI0FCN1
*SFR* 000000F7H   DATA     BYTE      SPI0FCT
*SFR* 000000DFH   DATA     BYTE      SPI0PCF
      01000036H   CODE     ---       SPI_0_enter_DefaultMode_from_RESET
      01001919H   CODE     ---       squareTable
*SFR* 000000B0H.4 DATA     BIT       T0
*SFR* 000000B0H.5 DATA     BIT       T1
*SFR* 00000098H.3 DATA     BIT       TB8
*SFR* 00000088H   DATA     BYTE      TCON
*SFR* 00000088H.1 DATA     BIT       TCON_IE0
*SFR* 00000088H.3 DATA     BIT       TCON_IE1
*SFR* 00000088H   DATA     BIT       TCON_IT0
*SFR* 00000088H.2 DATA     BIT       TCON_IT1
*SFR* 00000088H.5 DATA     BIT       TCON_TF0
*SFR* 00000088H.7 DATA     BIT       TCON_TF1
*SFR* 00000088H.4 DATA     BIT       TCON_TR0
*SFR* 00000088H.6 DATA     BIT       TCON_TR1
*SFR* 00000088H.5 DATA     BIT       TF0
LX51 LINKER/LOCATER V4.66.30.0                                                        05/06/2017  23:10:53  PAGE 16


*SFR* 00000088H.7 DATA     BIT       TF1
*SFR* 0000008CH   DATA     BYTE      TH0
*SFR* 0000008DH   DATA     BYTE      TH1
*SFR* 00000098H.1 DATA     BIT       TI
      01002D48H   CODE     ---       TIMER01_0_enter_DefaultMode_from_RESET
      01002CD6H   CODE     ---       TIMER16_3_enter_DefaultMode_from_RESET
      01000003H   CODE     ---       TIMER16_4_enter_DefaultMode_from_RESET
      010029B4H   CODE     ---       TIMER2_ISR
      01002CB8H   CODE     ---       TIMER3_ISR
      01002A19H   CODE     ---       TIMER4_ISR
      01002DE1H   CODE     ---       TIMER_SETUP_0_enter_DefaultMode_from_RESET
*SFR* 0000008AH   DATA     BYTE      TL0
*SFR* 0000008BH   DATA     BYTE      TL1
*SFR* 00000089H   DATA     BYTE      TMOD
*SFR* 000000CEH   DATA     WORD      TMR2
*SFR* 000000C8H   DATA     BYTE      TMR2CN0
*SFR* 000000C8H.3 DATA     BIT       TMR2CN0_T2SPLIT
*SFR* 000000C8H   DATA     BIT       TMR2CN0_T2XCLK0
*SFR* 000000C8H.1 DATA     BIT       TMR2CN0_T2XCLK1
*SFR* 000000C8H.4 DATA     BIT       TMR2CN0_TF2CEN
*SFR* 000000C8H.7 DATA     BIT       TMR2CN0_TF2H
*SFR* 000000C8H.6 DATA     BIT       TMR2CN0_TF2L
*SFR* 000000C8H.5 DATA     BIT       TMR2CN0_TF2LEN
*SFR* 000000C8H.2 DATA     BIT       TMR2CN0_TR2
*SFR* 000000FDH   DATA     BYTE      TMR2CN1
*SFR* 000000CFH   DATA     BYTE      TMR2H
*SFR* 000000CEH   DATA     BYTE      TMR2L
*SFR* 000000CAH   DATA     WORD      TMR2RL
*SFR* 000000CBH   DATA     BYTE      TMR2RLH
*SFR* 000000CAH   DATA     BYTE      TMR2RLL
*SFR* 00000094H   DATA     WORD      TMR3
*SFR* 00000091H   DATA     BYTE      TMR3CN0
*SFR* 000000FEH   DATA     BYTE      TMR3CN1
*SFR* 00000095H   DATA     BYTE      TMR3H
*SFR* 00000094H   DATA     BYTE      TMR3L
*SFR* 00000092H   DATA     WORD      TMR3RL
*SFR* 00000093H   DATA     BYTE      TMR3RLH
*SFR* 00000092H   DATA     BYTE      TMR3RLL
*SFR* 000000A4H   DATA     WORD      TMR4
*SFR* 00000098H   DATA     BYTE      TMR4CN0
*SFR* 00000098H.3 DATA     BIT       TMR4CN0_T4SPLIT
*SFR* 00000098H   DATA     BIT       TMR4CN0_T4XCLK0
*SFR* 00000098H.1 DATA     BIT       TMR4CN0_T4XCLK1
*SFR* 00000098H.4 DATA     BIT       TMR4CN0_TF4CEN
*SFR* 00000098H.7 DATA     BIT       TMR4CN0_TF4H
*SFR* 00000098H.6 DATA     BIT       TMR4CN0_TF4L
*SFR* 00000098H.5 DATA     BIT       TMR4CN0_TF4LEN
*SFR* 00000098H.2 DATA     BIT       TMR4CN0_TR4
*SFR* 000000FFH   DATA     BYTE      TMR4CN1
*SFR* 000000A5H   DATA     BYTE      TMR4H
*SFR* 000000A4H   DATA     BYTE      TMR4L
*SFR* 000000A2H   DATA     WORD      TMR4RL
*SFR* 000000A3H   DATA     BYTE      TMR4RLH
*SFR* 000000A2H   DATA     BYTE      TMR4RLL
*SFR* 000000D4H   DATA     WORD      TMR5
*SFR* 000000C0H   DATA     BYTE      TMR5CN0
*SFR* 000000C0H.3 DATA     BIT       TMR5CN0_T5SPLIT
*SFR* 000000C0H   DATA     BIT       TMR5CN0_T5XCLK0
*SFR* 000000C0H.1 DATA     BIT       TMR5CN0_T5XCLK1
*SFR* 000000C0H.4 DATA     BIT       TMR5CN0_TF5CEN
*SFR* 000000C0H.7 DATA     BIT       TMR5CN0_TF5H
*SFR* 000000C0H.6 DATA     BIT       TMR5CN0_TF5L
LX51 LINKER/LOCATER V4.66.30.0                                                        05/06/2017  23:10:53  PAGE 17


*SFR* 000000C0H.5 DATA     BIT       TMR5CN0_TF5LEN
*SFR* 000000C0H.2 DATA     BIT       TMR5CN0_TR5
*SFR* 000000F1H   DATA     BYTE      TMR5CN1
*SFR* 000000D5H   DATA     BYTE      TMR5H
*SFR* 000000D4H   DATA     BYTE      TMR5L
*SFR* 000000D2H   DATA     WORD      TMR5RL
*SFR* 000000D3H   DATA     BYTE      TMR5RLH
*SFR* 000000D2H   DATA     BYTE      TMR5RLL
*SFR* 00000088H.4 DATA     BIT       TR0
*SFR* 00000088H.6 DATA     BIT       TR1
      01001B19H   CODE     ---       triangleTable
*SFR* 000000B0H.1 DATA     BIT       TXD
*SFR* 000000D9H   DATA     BYTE      UART0PCF
*SFR* 0000009DH   DATA     BYTE      UART1FCN0
*SFR* 000000D8H   DATA     BYTE      UART1FCN1
*SFR* 000000D8H.3 DATA     BIT       UART1FCN1_RFRQ
*SFR* 000000D8H   DATA     BIT       UART1FCN1_RIE
*SFR* 000000D8H.1 DATA     BIT       UART1FCN1_RXTO0
*SFR* 000000D8H.2 DATA     BIT       UART1FCN1_RXTO1
*SFR* 000000D8H.7 DATA     BIT       UART1FCN1_TFRQ
*SFR* 000000D8H.4 DATA     BIT       UART1FCN1_TIE
*SFR* 000000D8H.5 DATA     BIT       UART1FCN1_TXHOLD
*SFR* 000000D8H.6 DATA     BIT       UART1FCN1_TXNF
*SFR* 000000FAH   DATA     BYTE      UART1FCT
*SFR* 0000009EH   DATA     BYTE      UART1LIN
*SFR* 000000DAH   DATA     BYTE      UART1PCF
      01002E05H   CODE     ---       UART_0_enter_DefaultMode_from_RESET
*SFR* 000000FFH   DATA     BYTE      VDM0CN
      01002DFAH   CODE     ---       VREF_0_enter_DefaultMode_from_RESET
      01002DC3H   CODE     ---       WDT_0_enter_DefaultMode_from_RESET
*SFR* 00000097H   DATA     BYTE      WDTCN
      01001F19H   CODE     ---       windowedSineTable
*SFR* 000000B0H.6 DATA     BIT       WR
*SFR* 000000E1H   DATA     BYTE      XBR0
*SFR* 000000E2H   DATA     BYTE      XBR1
*SFR* 000000E3H   DATA     BYTE      XBR2
*SFR* 00000086H   DATA     BYTE      XOSC0CN



SYMBOL TABLE OF MODULE:  EFM8BB3_FUNCTIONGENERATOR.OMF.CRBUILD (JOYSTICK)

      VALUE       REP       CLASS    TYPE      SYMBOL NAME
      ====================================================
      ---         MODULE    ---      ---       JOYSTICK
      000000A2H   SFRSYM    DATA     BYTE      SPI0CKR
      00000080H   SFRSYM    DATA     BYTE      P0
      000000C8H.6 SFRSYM    DATA     BIT       SCON1_PERR
      000000D0H.2 SFRSYM    DATA     BIT       PSW_OV
      00000086H   SFRSYM    DATA     BYTE      XOSC0CN
      00000090H   SFRSYM    DATA     BYTE      P1
      000000F8H.1 SFRSYM    DATA     BIT       SPI0CN0_TXNF
      00000097H   SFRSYM    DATA     BYTE      WDTCN
      000000A0H   SFRSYM    DATA     BYTE      P2
      000000B0H   SFRSYM    DATA     BYTE      P3
      000000C0H.7 SFRSYM    DATA     BIT       SMB0CN0_MASTER
      000000F9H   SFRSYM    DATA     WORD      PCA0
      000000E6H   SFRSYM    DATA     BYTE      EIE1
      000000C0H.1 SFRSYM    DATA     BIT       SMB0CN0_ACK
      000000E8H.1 SFRSYM    DATA     BIT       CLIF0_C0RIF
      000000F3H   SFRSYM    DATA     BYTE      EIE2
      000000E8H.3 SFRSYM    DATA     BIT       CLIF0_C1RIF
LX51 LINKER/LOCATER V4.66.30.0                                                        05/06/2017  23:10:53  PAGE 18


      000000E8H.5 SFRSYM    DATA     BIT       CLIF0_C2RIF
      0000008FH   SFRSYM    DATA     BYTE      PSCTL
      00000080H.2 SFRSYM    DATA     BIT       BSP_PB0
      000000E8H.7 SFRSYM    DATA     BIT       CLIF0_C3RIF
      000000E4H   SFRSYM    DATA     BYTE      IT01CF
      00000080H.3 SFRSYM    DATA     BIT       BSP_PB1
      000000C0H.6 SFRSYM    DATA     BIT       SMB0CN0_TXMODE
      000000ADH   SFRSYM    DATA     BYTE      DERIVID
      000000A7H   SFRSYM    DATA     BYTE      SFRPAGE
      000000A4H   SFRSYM    DATA     BYTE      P0MDOUT
      000000A5H   SFRSYM    DATA     BYTE      P1MDOUT
      000000E8H.5 SFRSYM    DATA     BIT       ADC0CN0_ADINT
      000000CBH   SFRSYM    DATA     BYTE      TMR2RLH
      000000A6H   SFRSYM    DATA     BYTE      P2MDOUT
      000000A8H   SFRSYM    DATA     BYTE      IE
      00000093H   SFRSYM    DATA     BYTE      TMR3RLH
      0000009CH   SFRSYM    DATA     BYTE      P3MDOUT
      000000A3H   SFRSYM    DATA     BYTE      TMR4RLH
      000000BBH   SFRSYM    DATA     BYTE      EIP1
      000000D3H   SFRSYM    DATA     BYTE      TMR5RLH
      000000EDH   SFRSYM    DATA     BYTE      EIP2
      00000098H.2 SFRSYM    DATA     BIT       SCON0_RB8
      000000CAH   SFRSYM    DATA     BYTE      TMR2RLL
      000000FCH   SFRSYM    DATA     BYTE      PCA0CPH0
      00000092H   SFRSYM    DATA     BYTE      TMR3RLL
      000000EAH   SFRSYM    DATA     BYTE      PCA0CPH1
      00000098H.3 SFRSYM    DATA     BIT       SCON0_TB8
      000000F0H   SFRSYM    DATA     BIT       B_B0
      00000082H   SFRSYM    DATA     WORD      DP
      000000A2H   SFRSYM    DATA     BYTE      TMR4RLL
      000000ECH   SFRSYM    DATA     BYTE      PCA0CPH2
      000000F0H.1 SFRSYM    DATA     BIT       B_B1
      000000C3H   SFRSYM    DATA     WORD      ADC0GT
      000000D2H   SFRSYM    DATA     BYTE      TMR5RLL
      000000F5H   SFRSYM    DATA     BYTE      PCA0CPH3
      000000BDH   SFRSYM    DATA     BYTE      I2C0SLAD
      000000D8H.3 SFRSYM    DATA     BIT       UART1FCN1_RFRQ
      000000F0H.2 SFRSYM    DATA     BIT       B_B2
      000000BCH   SFRSYM    DATA     BYTE      SFRPGCN
      000000FBH   SFRSYM    DATA     BYTE      PCA0CPL0
      00000085H   SFRSYM    DATA     BYTE      PCA0CPH4
      000000F0H.3 SFRSYM    DATA     BIT       B_B3
      000000D9H   SFRSYM    DATA     BYTE      PCA0MD
      000000DAH   SFRSYM    DATA     BYTE      PCA0CPM0
      000000E9H   SFRSYM    DATA     BYTE      PCA0CPL1
      000000DEH   SFRSYM    DATA     BYTE      PCA0CPH5
      000000D8H.7 SFRSYM    DATA     BIT       UART1FCN1_TFRQ
      000000F0H.4 SFRSYM    DATA     BIT       B_B4
      000000DBH   SFRSYM    DATA     BYTE      PCA0CPM1
      000000EBH   SFRSYM    DATA     BYTE      PCA0CPL2
      000000A1H   SFRSYM    DATA     BYTE      ADC0ASCF
      000000B6H   SFRSYM    DATA     BYTE      ADC0ASAH
      000000F0H.5 SFRSYM    DATA     BIT       B_B5
      000000E8H.6 SFRSYM    DATA     BIT       ADC0CN0_IPOEN
      000000E8H   SFRSYM    DATA     BIT       ADC0CN0_TEMPE
      000000DCH   SFRSYM    DATA     BYTE      PCA0CPM2
      000000F4H   SFRSYM    DATA     BYTE      PCA0CPL3
      000000B8H   SFRSYM    DATA     BYTE      IP
      000000F0H.6 SFRSYM    DATA     BIT       B_B6
      000000C5H   SFRSYM    DATA     WORD      ADC0LT
      000000AEH   SFRSYM    DATA     BYTE      PCA0CPM3
      00000084H   SFRSYM    DATA     BYTE      PCA0CPL4
LX51 LINKER/LOCATER V4.66.30.0                                                        05/06/2017  23:10:53  PAGE 19


      000000D8H.6 SFRSYM    DATA     BIT       UART1FCN1_TXNF
      00000098H.5 SFRSYM    DATA     BIT       SCON0_MCE
      000000F0H.7 SFRSYM    DATA     BIT       B_B7
      000000AFH   SFRSYM    DATA     BYTE      PCA0CPM4
      000000DDH   SFRSYM    DATA     BYTE      PCA0CPL5
      000000C3H   SFRSYM    DATA     BYTE      SMB0FCN0
      000000CCH   SFRSYM    DATA     BYTE      PCA0CPM5
      000000B5H   SFRSYM    DATA     BYTE      ADC0ASAL
      000000E1H   SFRSYM    DATA     BYTE      XBR0
      000000C4H   SFRSYM    DATA     BYTE      SMB0FCN1
      000000C1H   SFRSYM    DATA     BYTE      SMB0CF
      000000E2H   SFRSYM    DATA     BYTE      XBR1
      000000C1H   SFRSYM    DATA     BYTE      PFE0CN
      000000E7H   SFRSYM    DATA     BYTE      EMI0CN
      000000C0H.5 SFRSYM    DATA     BIT       SMB0CN0_STA
      000000E3H   SFRSYM    DATA     BYTE      XBR2
      000000B1H   SFRSYM    DATA     BYTE      CLU0CF
      000000BBH   SFRSYM    DATA     BYTE      ADC0MX
      000000E0H   SFRSYM    DATA     BIT       ACC_ACC0
      000000D1H   SFRSYM    DATA     BYTE      REF0CN
      000000B3H   SFRSYM    DATA     BYTE      CLU1CF
      0000008EH   SFRSYM    DATA     BYTE      CKCON0
      000000E0H.1 SFRSYM    DATA     BIT       ACC_ACC1
      000000C9H   SFRSYM    DATA     BYTE      REG0CN
      000000CAH   SFRSYM    DATA     BYTE      CRC0IN
      000000B6H   SFRSYM    DATA     BYTE      CLU2CF
      000000A6H   SFRSYM    DATA     BYTE      CKCON1
      000000C8H.2 SFRSYM    DATA     BIT       TMR2CN0_TR2
      000000E0H.2 SFRSYM    DATA     BIT       ACC_ACC2
      000000BFH   SFRSYM    DATA     BYTE      CLU3CF
      000000E0H.3 SFRSYM    DATA     BIT       ACC_ACC3
      00000081H   SFRSYM    DATA     BYTE      SP
      0000009DH   SFRSYM    DATA     BYTE      CMP0MD
      000000E0H.4 SFRSYM    DATA     BIT       ACC_ACC4
      000000B1H   SFRSYM    DATA     BYTE      LFO0CN
      000000ABH   SFRSYM    DATA     BYTE      CMP1MD
      000000D8H   SFRSYM    DATA     BIT       PCA0CN0_CCF0
      000000E0H.5 SFRSYM    DATA     BIT       ACC_ACC5
      00000098H.2 SFRSYM    DATA     BIT       TMR4CN0_TR4
      000000D8H.1 SFRSYM    DATA     BIT       PCA0CN0_CCF1
      000000E0H.6 SFRSYM    DATA     BIT       ACC_ACC6
      000000CEH   SFRSYM    DATA     WORD      TMR2
      0000009AH   SFRSYM    DATA     BYTE      SPI0FCN0
      000000C7H   SFRSYM    DATA     BYTE      ADC0ASCT
      000000D8H.2 SFRSYM    DATA     BIT       PCA0CN0_CCF2
      000000E0H.7 SFRSYM    DATA     BIT       ACC_ACC7
      00000094H   SFRSYM    DATA     WORD      TMR3
      0000009BH   SFRSYM    DATA     BYTE      SPI0FCN1
      000000C0H.2 SFRSYM    DATA     BIT       TMR5CN0_TR5
      000000D8H.3 SFRSYM    DATA     BIT       PCA0CN0_CCF3
      000000A4H   SFRSYM    DATA     WORD      TMR4
      00000094H   SFRSYM    DATA     BYTE      SBCON1
      000000D8H.4 SFRSYM    DATA     BIT       PCA0CN0_CCF4
      000000D4H   SFRSYM    DATA     WORD      TMR5
      000000C0H.3 SFRSYM    DATA     BIT       SMB0CN0_ACKRQ
      000000D8H.5 SFRSYM    DATA     BIT       PCA0CN0_CCF5
      000000FFH   SFRSYM    DATA     BYTE      VDM0CN
      000000F1H   SFRSYM    DATA     BYTE      P0MDIN
      000000AFH   SFRSYM    DATA     BYTE      CLU0FN
      00000098H.4 SFRSYM    DATA     BIT       SCON0_REN
      000000ACH   SFRSYM    DATA     BYTE      SMB0TC
      000000F2H   SFRSYM    DATA     BYTE      P1MDIN
LX51 LINKER/LOCATER V4.66.30.0                                                        05/06/2017  23:10:53  PAGE 20


      000000B2H   SFRSYM    DATA     BYTE      CLU1FN
      000000C8H.4 SFRSYM    DATA     BIT       SCON1_REN
      000000F3H   SFRSYM    DATA     BYTE      P2MDIN
      000000B5H   SFRSYM    DATA     BYTE      CLU2FN
      000000C0H.4 SFRSYM    DATA     BIT       SMB0CN0_STO
      000000F4H   SFRSYM    DATA     BYTE      P3MDIN
      000000B9H   SFRSYM    DATA     BYTE      I2C0STAT
      000000BBH   SFRSYM    DATA     BYTE      I2C0DOUT
      000000BEH   SFRSYM    DATA     BYTE      CLU3FN
      00000096H   SFRSYM    DATA     BYTE      SBRLH1
      000000FEH   SFRSYM    DATA     BYTE      P0MASK
      000000D8H.5 SFRSYM    DATA     BIT       UART1FCN1_TXHOLD
      000000EEH   SFRSYM    DATA     BYTE      P1MASK
      000000FCH   SFRSYM    DATA     BYTE      P2MASK
      000000D0H.3 SFRSYM    DATA     BIT       PSW_RS0
      000000D8H.7 SFRSYM    DATA     BIT       PCA0CN0_CF
      0000009EH   SFRSYM    DATA     BYTE      PCA0CENT
      000000BAH   SFRSYM    DATA     BYTE      I2C0CN0
      000000D2H   SFRSYM    DATA     BYTE      CRC0ST
      000000F8H.4 SFRSYM    DATA     BIT       SPI0CN0_RXOVRN
      000000D0H.4 SFRSYM    DATA     BIT       PSW_RS1
      00000095H   SFRSYM    DATA     BYTE      SBRLL1
      000000C8H.2 SFRSYM    DATA     BIT       SCON1_RBX
      00000091H   SFRSYM    DATA     BYTE      DAC0CF0
      000000BCH   SFRSYM    DATA     BYTE      ADC0CF0
      000000C8H   SFRSYM    DATA     BIT       TMR2CN0_T2XCLK0
      00000093H   SFRSYM    DATA     BYTE      DAC1CF0
      00000092H   SFRSYM    DATA     BYTE      DAC0CF1
      000000B9H   SFRSYM    DATA     BYTE      ADC0CF1
      000000C8H.1 SFRSYM    DATA     BIT       TMR2CN0_T2XCLK1
      000000C8H.3 SFRSYM    DATA     BIT       SCON1_TBX
      000000E8H.7 SFRSYM    DATA     BIT       ADC0CN0_ADEN
      00000089H   SFRSYM    DATA     BYTE      TMOD
      00000088H   SFRSYM    DATA     BYTE      TCON
      00000095H   SFRSYM    DATA     BYTE      DAC2CF0
      00000094H   SFRSYM    DATA     BYTE      DAC1CF1
      000000DFH   SFRSYM    DATA     BYTE      ADC0CF2
      0000009AH   SFRSYM    DATA     BYTE      DAC3CF0
      00000096H   SFRSYM    DATA     BYTE      DAC2CF1
      000000CFH   SFRSYM    DATA     BYTE      CRC0FLIP
      000000D0H   SFRSYM    DATA     BIT       PSW_PARITY
      000000A8H.4 SFRSYM    DATA     BIT       IE_ES0
      0000009CH   SFRSYM    DATA     BYTE      DAC3CF1
      0000009FH   SFRSYM    DATA     BYTE      CMP0MX
      00000098H   SFRSYM    DATA     BIT       TMR4CN0_T4XCLK0
      000000A8H.1 SFRSYM    DATA     BIT       IE_ET0
      000000AAH   SFRSYM    DATA     BYTE      CMP1MX
      00000098H.1 SFRSYM    DATA     BIT       TMR4CN0_T4XCLK1
      000000A8H.3 SFRSYM    DATA     BIT       IE_ET1
      000000D4H   SFRSYM    DATA     BYTE      P0SKIP
      000000D1H   SFRSYM    DATA     BYTE      CLOUT0
      00000090H.7 SFRSYM    DATA     BIT       BSP_JOYSTICK
      000000D8H   SFRSYM    DATA     BIT       UART1FCN1_RIE
      000000C0H   SFRSYM    DATA     BIT       TMR5CN0_T5XCLK0
      000000A8H.5 SFRSYM    DATA     BIT       IE_ET2
      00000088H   SFRSYM    DATA     BIT       DACGCF0_D1SRC0
      000000D5H   SFRSYM    DATA     BYTE      P1SKIP
      000000C0H.1 SFRSYM    DATA     BIT       TMR5CN0_T5XCLK1
      00000088H.1 SFRSYM    DATA     BIT       DACGCF0_D1SRC1
      000000CCH   SFRSYM    DATA     BYTE      P2SKIP
      00000084H   SFRSYM    DATA     BYTE      CLU0MX
      000000E8H   SFRSYM    DATA     BYTE      ADC0CN0
LX51 LINKER/LOCATER V4.66.30.0                                                        05/06/2017  23:10:53  PAGE 21


      000000D8H.4 SFRSYM    DATA     BIT       UART1FCN1_TIE
      000000A8H   SFRSYM    DATA     BIT       IE_EX0
      00000088H.4 SFRSYM    DATA     BIT       DACGCF0_D3SRC0
      00000085H   SFRSYM    DATA     BYTE      CLU1MX
      000000B2H   SFRSYM    DATA     BYTE      ADC0CN1
      000000D8H.6 SFRSYM    DATA     BIT       PCA0CN0_CR
      000000A8H.2 SFRSYM    DATA     BIT       IE_EX1
      00000088H.5 SFRSYM    DATA     BIT       DACGCF0_D3SRC1
      00000091H   SFRSYM    DATA     BYTE      CLU2MX
      000000B3H   SFRSYM    DATA     BYTE      ADC0CN2
      00000090H.5 SFRSYM    DATA     BIT       BSP_LED_B
      000000C8H.7 SFRSYM    DATA     BIT       SCON1_OVR
      000000AAH   SFRSYM    DATA     BYTE      PSTAT0
      000000AEH   SFRSYM    DATA     BYTE      CLU3MX
      000000A0H.2 SFRSYM    DATA     BIT       BSP_BC_EN
      00000098H.7 SFRSYM    DATA     BIT       SCON0_SMODE
      000000B5H   SFRSYM    DATA     BYTE      DEVICEID
      000000A9H   SFRSYM    DATA     BYTE      CLKSEL
      000000F8H   SFRSYM    DATA     BIT       SPI0CN0_SPIEN
      00000085H   SFRSYM    DATA     BYTE      DAC0H
      000000F0H   SFRSYM    DATA     BYTE      B
      000000BEH   SFRSYM    DATA     BYTE      ADC0H
      000000FFH   SFRSYM    DATA     BYTE      I2C0ADM
      0000008AH   SFRSYM    DATA     BYTE      DAC1H
      00000090H.4 SFRSYM    DATA     BIT       BSP_LED_G
      00000088H.2 SFRSYM    DATA     BIT       DACGCF0_D1AMEN
      0000008CH   SFRSYM    DATA     BYTE      DAC2H
      0000008EH   SFRSYM    DATA     BYTE      DAC3H
      00000088H.6 SFRSYM    DATA     BIT       DACGCF0_D3AMEN
      000000CAH   SFRSYM    DATA     WORD      TMR2RL
      00000084H   SFRSYM    DATA     BYTE      DAC0L
      000000BDH   SFRSYM    DATA     BYTE      ADC0L
      00000092H   SFRSYM    DATA     WORD      TMR3RL
      00000089H   SFRSYM    DATA     BYTE      DAC1L
      000000A2H   SFRSYM    DATA     WORD      TMR4RL
      000000D8H   SFRSYM    DATA     BYTE      PCA0CN0
      0000008BH   SFRSYM    DATA     BYTE      DAC2L
      000000E0H   SFRSYM    DATA     BYTE      ACC
      000000D2H   SFRSYM    DATA     WORD      TMR5RL
      000000D9H   SFRSYM    DATA     BYTE      UART0PCF
      0000008DH   SFRSYM    DATA     BYTE      DAC3L
      000000FBH   SFRSYM    DATA     WORD      PCA0CP0
      000000DAH   SFRSYM    DATA     BYTE      UART1PCF
      000000E9H   SFRSYM    DATA     WORD      PCA0CP1
      00000088H   SFRSYM    DATA     BYTE      DACGCF0
      000000EBH   SFRSYM    DATA     WORD      PCA0CP2
      000000BCH   SFRSYM    DATA     BYTE      I2C0DIN
      00000098H   SFRSYM    DATA     BYTE      DACGCF1
      000000CEH   SFRSYM    DATA     BYTE      CRC0CN0
      000000F4H   SFRSYM    DATA     WORD      PCA0CP3
      0000008CH   SFRSYM    DATA     BYTE      TH0
      000000A2H   SFRSYM    DATA     BYTE      DACGCF2
      00000086H   SFRSYM    DATA     BYTE      CRC0CN1
      000000B8H.4 SFRSYM    DATA     BIT       IP_PS0
      00000084H   SFRSYM    DATA     WORD      PCA0CP4
      000000FAH   SFRSYM    DATA     BYTE      UART1FCT
      0000008DH   SFRSYM    DATA     BYTE      TH1
      000000FAH   SFRSYM    DATA     BYTE      PCA0H
      000000F5H   SFRSYM    DATA     BYTE      I2C0FCT
      00000090H.6 SFRSYM    DATA     BIT       BSP_LED_R
      000000B8H.1 SFRSYM    DATA     BIT       IP_PT0
      000000DDH   SFRSYM    DATA     WORD      PCA0CP5
LX51 LINKER/LOCATER V4.66.30.0                                                        05/06/2017  23:10:53  PAGE 22


      000000C7H   SFRSYM    DATA     BYTE      CLIE0
      000000B8H.3 SFRSYM    DATA     BIT       IP_PT1
      00000088H.3 SFRSYM    DATA     BIT       DACGCF0_D01REFSL
      000000B5H   SFRSYM    DATA     WORD      ADC0ASA
      000000E8H   SFRSYM    DATA     BYTE      CLIF0
      000000C0H.2 SFRSYM    DATA     BIT       SMB0CN0_ARBLOST
      000000B8H.5 SFRSYM    DATA     BIT       IP_PT2
      0000008AH   SFRSYM    DATA     BYTE      TL0
      000000D0H.5 SFRSYM    DATA     BIT       PSW_F0
      000000A8H.6 SFRSYM    DATA     BIT       IE_ESPI0
      0000008BH   SFRSYM    DATA     BYTE      TL1
      000000F9H   SFRSYM    DATA     BYTE      PCA0L
      000000C0H   SFRSYM    DATA     BIT       SMB0CN0_SI
      000000D0H.1 SFRSYM    DATA     BIT       PSW_F1
      00000080H   SFRSYM    DATA     BIT       P0_B0
      000000B8H   SFRSYM    DATA     BIT       IP_PX0
      00000090H   SFRSYM    DATA     BIT       P1_B0
      00000080H.1 SFRSYM    DATA     BIT       P0_B1
      000000B8H.2 SFRSYM    DATA     BIT       IP_PX1
      00000088H.7 SFRSYM    DATA     BIT       DACGCF0_D23REFSL
      0000009EH   SFRSYM    DATA     BYTE      UART1LIN
      0000009BH   SFRSYM    DATA     BYTE      CMP0CN0
      000000C6H   SFRSYM    DATA     BYTE      CLEN0
      00000088H.1 SFRSYM    DATA     BIT       TCON_IE0
      000000A0H   SFRSYM    DATA     BIT       P2_B0
      00000090H.1 SFRSYM    DATA     BIT       P1_B1
      00000080H.2 SFRSYM    DATA     BIT       P0_B2
      000000BFH   SFRSYM    DATA     BYTE      CMP1CN0
      00000099H   SFRSYM    DATA     BYTE      CMP0CN1
      00000088H.3 SFRSYM    DATA     BIT       TCON_IE1
      000000B0H   SFRSYM    DATA     BIT       P3_B0
      000000A0H.1 SFRSYM    DATA     BIT       P2_B1
      00000090H.2 SFRSYM    DATA     BIT       P1_B2
      00000080H.3 SFRSYM    DATA     BIT       P0_B3
      000000C0H   SFRSYM    DATA     BYTE      SMB0CN0
      000000ACH   SFRSYM    DATA     BYTE      CMP1CN1
      000000B0H.1 SFRSYM    DATA     BIT       P3_B1
      000000A0H.2 SFRSYM    DATA     BIT       P2_B2
      00000090H.3 SFRSYM    DATA     BIT       P1_B3
      00000080H.4 SFRSYM    DATA     BIT       P0_B4
      000000B0H.2 SFRSYM    DATA     BIT       P3_B2
      000000A0H.3 SFRSYM    DATA     BIT       P2_B3
      00000090H.4 SFRSYM    DATA     BIT       P1_B4
      00000080H.5 SFRSYM    DATA     BIT       P0_B5
      00000098H   SFRSYM    DATA     BIT       DACGCF1_D0UDIS
      000000D8H.1 SFRSYM    DATA     BIT       UART1FCN1_RXTO0
      000000B0H.3 SFRSYM    DATA     BIT       P3_B3
      000000A0H.4 SFRSYM    DATA     BIT       P2_B4
      00000090H.5 SFRSYM    DATA     BIT       P1_B5
      00000080H.6 SFRSYM    DATA     BIT       P0_B6
      00000098H.1 SFRSYM    DATA     BIT       DACGCF1_D1UDIS
      000000EEH   SFRSYM    DATA     BYTE      EIP1H
      000000D8H.2 SFRSYM    DATA     BIT       UART1FCN1_RXTO1
      000000B0H.4 SFRSYM    DATA     BIT       P3_B4
      000000A0H.5 SFRSYM    DATA     BIT       P2_B5
      00000090H.6 SFRSYM    DATA     BIT       P1_B6
      00000080H.7 SFRSYM    DATA     BIT       P0_B7
      00000098H.2 SFRSYM    DATA     BIT       DACGCF1_D2UDIS
      000000C5H   SFRSYM    DATA     BYTE      SMB0RXLN
      000000F6H   SFRSYM    DATA     BYTE      EIP2H
      000000A0H.6 SFRSYM    DATA     BIT       P2_B6
      00000090H.7 SFRSYM    DATA     BIT       P1_B7
LX51 LINKER/LOCATER V4.66.30.0                                                        05/06/2017  23:10:53  PAGE 23


      00000098H.3 SFRSYM    DATA     BIT       DACGCF1_D3UDIS
      000000B0H.7 SFRSYM    DATA     BIT       P3_B7
      00000083H   SFRSYM    DATA     BYTE      DPH
      000000C4H   SFRSYM    DATA     BYTE      ADC0GTH
      000000C8H.7 SFRSYM    DATA     BIT       TMR2CN0_TF2H
      000000C8H.3 SFRSYM    DATA     BIT       TMR2CN0_T2SPLIT
      000000D0H.6 SFRSYM    DATA     BIT       PSW_AC
      000000F8H   SFRSYM    DATA     BYTE      SPI0CN0
      000000C7H   SFRSYM    DATA     BYTE      HFO0CAL
      00000088H.5 SFRSYM    DATA     BIT       TCON_TF0
      00000098H   SFRSYM    DATA     BIT       SCON0_RI
      000000D6H   SFRSYM    DATA     BYTE      HFO1CAL
      00000082H   SFRSYM    DATA     BYTE      DPL
      00000088H.7 SFRSYM    DATA     BIT       TCON_TF1
      000000C8H   SFRSYM    DATA     BIT       SCON1_RI
      00000099H   SFRSYM    DATA     BYTE      SBUF0
      00000087H   SFRSYM    DATA     BYTE      PCON0
      000000F2H   SFRSYM    DATA     BYTE      IPH
      000000C3H   SFRSYM    DATA     BYTE      ADC0GTL
      00000098H.7 SFRSYM    DATA     BIT       TMR4CN0_TF4H
      00000098H.3 SFRSYM    DATA     BIT       TMR4CN0_T4SPLIT
      000000C8H.6 SFRSYM    DATA     BIT       TMR2CN0_TF2L
      00000098H.1 SFRSYM    DATA     BIT       SCON0_TI
      00000092H   SFRSYM    DATA     BYTE      SBUF1
      000000CDH   SFRSYM    DATA     BYTE      PCON1
      000000C6H   SFRSYM    DATA     BYTE      ADC0LTH
      00000088H   SFRSYM    DATA     BIT       TCON_IT0
      000000C8H.1 SFRSYM    DATA     BIT       SCON1_TI
      000000EFH   SFRSYM    DATA     BYTE      RSTSRC
      000000FDH   SFRSYM    DATA     BYTE      P0MAT
      000000CBH   SFRSYM    DATA     BYTE      CRC0DAT
      000000C0H.7 SFRSYM    DATA     BIT       TMR5CN0_TF5H
      000000C0H.3 SFRSYM    DATA     BIT       TMR5CN0_T5SPLIT
      00000088H.2 SFRSYM    DATA     BIT       TCON_IT1
      000000D7H   SFRSYM    DATA     BYTE      SFRSTACK
      00000098H   SFRSYM    DATA     BYTE      SCON0
      000000F6H   SFRSYM    DATA     BYTE      PRTDRV
      000000EDH   SFRSYM    DATA     BYTE      P1MAT
      000000E8H.3 SFRSYM    DATA     BIT       ADC0CN0_ADWINT
      00000093H   SFRSYM    DATA     BYTE      SMOD1
      000000C8H   SFRSYM    DATA     BYTE      SCON1
      000000FBH   SFRSYM    DATA     BYTE      P2MAT
      00000098H.6 SFRSYM    DATA     BIT       TMR4CN0_TF4L
      000000E8H.4 SFRSYM    DATA     BIT       ADC0CN0_ADBUSY
      000000D6H   SFRSYM    DATA     BYTE      SMB0ADM
      000000C5H   SFRSYM    DATA     BYTE      ADC0LTL
      000000F8H.5 SFRSYM    DATA     BIT       SPI0CN0_MODF
      000000B8H.6 SFRSYM    DATA     BIT       IP_PSPI0
      000000E8H.1 SFRSYM    DATA     BIT       ADC0CN0_ADGN0
      0000009CH   SFRSYM    DATA     BYTE      PCA0CLR
      000000C0H.6 SFRSYM    DATA     BIT       TMR5CN0_TF5L
      000000E8H.2 SFRSYM    DATA     BIT       ADC0CN0_ADGN1
      000000C8H   SFRSYM    DATA     BYTE      TMR2CN0
      00000091H   SFRSYM    DATA     BYTE      TMR3CN0
      000000FDH   SFRSYM    DATA     BYTE      TMR2CN1
      00000098H   SFRSYM    DATA     BYTE      TMR4CN0
      000000FEH   SFRSYM    DATA     BYTE      TMR3CN1
      000000B0H.4 SFRSYM    DATA     BIT       BSP_DISP_EN
      000000C0H   SFRSYM    DATA     BYTE      TMR5CN0
      000000FFH   SFRSYM    DATA     BYTE      TMR4CN1
      000000D7H   SFRSYM    DATA     BYTE      SMB0ADR
      00000088H.4 SFRSYM    DATA     BIT       TCON_TR0
LX51 LINKER/LOCATER V4.66.30.0                                                        05/06/2017  23:10:53  PAGE 24


      000000F1H   SFRSYM    DATA     BYTE      TMR5CN1
      000000C8H.4 SFRSYM    DATA     BIT       TMR2CN0_TF2CEN
      00000088H.6 SFRSYM    DATA     BIT       TCON_TR1
      000000C2H   SFRSYM    DATA     BYTE      SMB0DAT
      000000A0H.6 SFRSYM    DATA     BIT       BSP_DISP_CS
      000000CFH   SFRSYM    DATA     BYTE      TMR2H
      000000A1H   SFRSYM    DATA     BYTE      SPI0CFG
      00000095H   SFRSYM    DATA     BYTE      TMR3H
      000000EFH   SFRSYM    DATA     BYTE      HFOCN
      000000D3H   SFRSYM    DATA     BYTE      CRC0CNT
      000000A5H   SFRSYM    DATA     BYTE      TMR4H
      00000098H.4 SFRSYM    DATA     BIT       TMR4CN0_TF4CEN
      000000D5H   SFRSYM    DATA     BYTE      TMR5H
      000000EFH   SFRSYM    DATA     BYTE      SMB0FCT
      00000096H   SFRSYM    DATA     BYTE      PCA0POL
      000000CEH   SFRSYM    DATA     BYTE      TMR2L
      000000C0H.4 SFRSYM    DATA     BIT       TMR5CN0_TF5CEN
      000000F8H.7 SFRSYM    DATA     BIT       SPI0CN0_SPIF
      00000094H   SFRSYM    DATA     BYTE      TMR3L
      000000A8H.7 SFRSYM    DATA     BIT       IE_EA
      000000A4H   SFRSYM    DATA     BYTE      TMR4L
      000000D4H   SFRSYM    DATA     BYTE      TMR5L
      000000C8H.5 SFRSYM    DATA     BIT       TMR2CN0_TF2LEN
      000000F8H.6 SFRSYM    DATA     BIT       SPI0CN0_WCOL
      000000F8H.2 SFRSYM    DATA     BIT       SPI0CN0_NSSMD0
      000000D0H.7 SFRSYM    DATA     BIT       PSW_CY
      0000009DH   SFRSYM    DATA     BYTE      UART1FCN0
      000000DFH   SFRSYM    DATA     BYTE      SPI0PCF
      000000A3H   SFRSYM    DATA     BYTE      SPI0DAT
      000000ADH   SFRSYM    DATA     BYTE      I2C0FCN0
      000000F8H.3 SFRSYM    DATA     BIT       SPI0CN0_NSSMD1
      000000BDH   SFRSYM    DATA     WORD      ADC0
      000000D8H   SFRSYM    DATA     BYTE      UART1FCN1
      000000ABH   SFRSYM    DATA     BYTE      I2C0FCN1
      000000E8H   SFRSYM    DATA     BIT       CLIF0_C0FIF
      00000098H.5 SFRSYM    DATA     BIT       TMR4CN0_TF4LEN
      000000E8H.2 SFRSYM    DATA     BIT       CLIF0_C1FIF
      000000D0H   SFRSYM    DATA     BYTE      PSW
      000000F7H   SFRSYM    DATA     BYTE      PCA0PWM
      000000E8H.4 SFRSYM    DATA     BIT       CLIF0_C2FIF
      000000F7H   SFRSYM    DATA     BYTE      SPI0FCT
      000000B6H   SFRSYM    DATA     BYTE      REVID
      000000C0H.5 SFRSYM    DATA     BIT       TMR5CN0_TF5LEN
      000000E8H.6 SFRSYM    DATA     BIT       CLIF0_C3FIF
      000000B7H   SFRSYM    DATA     BYTE      FLKEY

      ---         MODULE    ---      ---       DISP
      020000F9H   PUBLIC    XDATA    WORD      LastVcomToggle
      01002A7AH   PUBLIC    CODE     ---       _DISP_WriteLine
      01002C51H   PUBLIC    CODE     ---       _SoftwareVcomToggle
      01002C8CH   PUBLIC    CODE     ---       _BitReverse
      000000A2H   SFRSYM    DATA     BYTE      SPI0CKR
      00000080H   SFRSYM    DATA     BYTE      P0
      000000C8H.6 SFRSYM    DATA     BIT       SCON1_PERR
      000000D0H.2 SFRSYM    DATA     BIT       PSW_OV
      00000086H   SFRSYM    DATA     BYTE      XOSC0CN
      00000090H   SFRSYM    DATA     BYTE      P1
      000000F8H.1 SFRSYM    DATA     BIT       SPI0CN0_TXNF
      00000097H   SFRSYM    DATA     BYTE      WDTCN
      000000A0H   SFRSYM    DATA     BYTE      P2
      000000B0H   SFRSYM    DATA     BYTE      P3
      000000C0H.7 SFRSYM    DATA     BIT       SMB0CN0_MASTER
LX51 LINKER/LOCATER V4.66.30.0                                                        05/06/2017  23:10:53  PAGE 25


      000000F9H   SFRSYM    DATA     WORD      PCA0
      000000E6H   SFRSYM    DATA     BYTE      EIE1
      000000C0H.1 SFRSYM    DATA     BIT       SMB0CN0_ACK
      000000E8H.1 SFRSYM    DATA     BIT       CLIF0_C0RIF
      000000F3H   SFRSYM    DATA     BYTE      EIE2
      000000E8H.3 SFRSYM    DATA     BIT       CLIF0_C1RIF
      000000E8H.5 SFRSYM    DATA     BIT       CLIF0_C2RIF
      0000008FH   SFRSYM    DATA     BYTE      PSCTL
      00000080H.2 SFRSYM    DATA     BIT       BSP_PB0
      000000E8H.7 SFRSYM    DATA     BIT       CLIF0_C3RIF
      000000E4H   SFRSYM    DATA     BYTE      IT01CF
      00000080H.3 SFRSYM    DATA     BIT       BSP_PB1
      000000C0H.6 SFRSYM    DATA     BIT       SMB0CN0_TXMODE
      000000ADH   SFRSYM    DATA     BYTE      DERIVID
      000000A7H   SFRSYM    DATA     BYTE      SFRPAGE
      000000A4H   SFRSYM    DATA     BYTE      P0MDOUT
      000000A5H   SFRSYM    DATA     BYTE      P1MDOUT
      000000E8H.5 SFRSYM    DATA     BIT       ADC0CN0_ADINT
      000000CBH   SFRSYM    DATA     BYTE      TMR2RLH
      000000A6H   SFRSYM    DATA     BYTE      P2MDOUT
      000000A8H   SFRSYM    DATA     BYTE      IE
      00000093H   SFRSYM    DATA     BYTE      TMR3RLH
      0000009CH   SFRSYM    DATA     BYTE      P3MDOUT
      000000A3H   SFRSYM    DATA     BYTE      TMR4RLH
      000000BBH   SFRSYM    DATA     BYTE      EIP1
      000000D3H   SFRSYM    DATA     BYTE      TMR5RLH
      000000EDH   SFRSYM    DATA     BYTE      EIP2
      00000098H.2 SFRSYM    DATA     BIT       SCON0_RB8
      000000CAH   SFRSYM    DATA     BYTE      TMR2RLL
      000000FCH   SFRSYM    DATA     BYTE      PCA0CPH0
      00000092H   SFRSYM    DATA     BYTE      TMR3RLL
      000000EAH   SFRSYM    DATA     BYTE      PCA0CPH1
      00000098H.3 SFRSYM    DATA     BIT       SCON0_TB8
      000000F0H   SFRSYM    DATA     BIT       B_B0
      00000082H   SFRSYM    DATA     WORD      DP
      000000A2H   SFRSYM    DATA     BYTE      TMR4RLL
      000000ECH   SFRSYM    DATA     BYTE      PCA0CPH2
      000000F0H.1 SFRSYM    DATA     BIT       B_B1
      000000C3H   SFRSYM    DATA     WORD      ADC0GT
      000000D2H   SFRSYM    DATA     BYTE      TMR5RLL
      000000F5H   SFRSYM    DATA     BYTE      PCA0CPH3
      000000BDH   SFRSYM    DATA     BYTE      I2C0SLAD
      000000D8H.3 SFRSYM    DATA     BIT       UART1FCN1_RFRQ
      000000F0H.2 SFRSYM    DATA     BIT       B_B2
      000000BCH   SFRSYM    DATA     BYTE      SFRPGCN
      000000FBH   SFRSYM    DATA     BYTE      PCA0CPL0
      00000085H   SFRSYM    DATA     BYTE      PCA0CPH4
      000000F0H.3 SFRSYM    DATA     BIT       B_B3
      000000D9H   SFRSYM    DATA     BYTE      PCA0MD
      000000DAH   SFRSYM    DATA     BYTE      PCA0CPM0
      000000E9H   SFRSYM    DATA     BYTE      PCA0CPL1
      000000DEH   SFRSYM    DATA     BYTE      PCA0CPH5
      000000D8H.7 SFRSYM    DATA     BIT       UART1FCN1_TFRQ
      000000F0H.4 SFRSYM    DATA     BIT       B_B4
      000000DBH   SFRSYM    DATA     BYTE      PCA0CPM1
      000000EBH   SFRSYM    DATA     BYTE      PCA0CPL2
      000000A1H   SFRSYM    DATA     BYTE      ADC0ASCF
      000000B6H   SFRSYM    DATA     BYTE      ADC0ASAH
      000000F0H.5 SFRSYM    DATA     BIT       B_B5
      000000E8H.6 SFRSYM    DATA     BIT       ADC0CN0_IPOEN
      000000E8H   SFRSYM    DATA     BIT       ADC0CN0_TEMPE
      000000DCH   SFRSYM    DATA     BYTE      PCA0CPM2
LX51 LINKER/LOCATER V4.66.30.0                                                        05/06/2017  23:10:53  PAGE 26


      000000F4H   SFRSYM    DATA     BYTE      PCA0CPL3
      000000B8H   SFRSYM    DATA     BYTE      IP
      000000F0H.6 SFRSYM    DATA     BIT       B_B6
      000000C5H   SFRSYM    DATA     WORD      ADC0LT
      000000AEH   SFRSYM    DATA     BYTE      PCA0CPM3
      00000084H   SFRSYM    DATA     BYTE      PCA0CPL4
      000000D8H.6 SFRSYM    DATA     BIT       UART1FCN1_TXNF
      00000098H.5 SFRSYM    DATA     BIT       SCON0_MCE
      000000F0H.7 SFRSYM    DATA     BIT       B_B7
      000000AFH   SFRSYM    DATA     BYTE      PCA0CPM4
      000000DDH   SFRSYM    DATA     BYTE      PCA0CPL5
      000000C3H   SFRSYM    DATA     BYTE      SMB0FCN0
      000000CCH   SFRSYM    DATA     BYTE      PCA0CPM5
      000000B5H   SFRSYM    DATA     BYTE      ADC0ASAL
      000000E1H   SFRSYM    DATA     BYTE      XBR0
      000000C4H   SFRSYM    DATA     BYTE      SMB0FCN1
      000000C1H   SFRSYM    DATA     BYTE      SMB0CF
      000000E2H   SFRSYM    DATA     BYTE      XBR1
      000000C1H   SFRSYM    DATA     BYTE      PFE0CN
      000000E7H   SFRSYM    DATA     BYTE      EMI0CN
      000000C0H.5 SFRSYM    DATA     BIT       SMB0CN0_STA
      000000E3H   SFRSYM    DATA     BYTE      XBR2
      000000B1H   SFRSYM    DATA     BYTE      CLU0CF
      000000BBH   SFRSYM    DATA     BYTE      ADC0MX
      000000E0H   SFRSYM    DATA     BIT       ACC_ACC0
      000000D1H   SFRSYM    DATA     BYTE      REF0CN
      000000B3H   SFRSYM    DATA     BYTE      CLU1CF
      0000008EH   SFRSYM    DATA     BYTE      CKCON0
      000000E0H.1 SFRSYM    DATA     BIT       ACC_ACC1
      000000C9H   SFRSYM    DATA     BYTE      REG0CN
      000000CAH   SFRSYM    DATA     BYTE      CRC0IN
      000000B6H   SFRSYM    DATA     BYTE      CLU2CF
      000000A6H   SFRSYM    DATA     BYTE      CKCON1
      000000C8H.2 SFRSYM    DATA     BIT       TMR2CN0_TR2
      000000E0H.2 SFRSYM    DATA     BIT       ACC_ACC2
      000000BFH   SFRSYM    DATA     BYTE      CLU3CF
      000000E0H.3 SFRSYM    DATA     BIT       ACC_ACC3
      00000081H   SFRSYM    DATA     BYTE      SP
      0000009DH   SFRSYM    DATA     BYTE      CMP0MD
      000000E0H.4 SFRSYM    DATA     BIT       ACC_ACC4
      000000B1H   SFRSYM    DATA     BYTE      LFO0CN
      000000ABH   SFRSYM    DATA     BYTE      CMP1MD
      000000D8H   SFRSYM    DATA     BIT       PCA0CN0_CCF0
      000000E0H.5 SFRSYM    DATA     BIT       ACC_ACC5
      00000098H.2 SFRSYM    DATA     BIT       TMR4CN0_TR4
      000000D8H.1 SFRSYM    DATA     BIT       PCA0CN0_CCF1
      000000E0H.6 SFRSYM    DATA     BIT       ACC_ACC6
      000000CEH   SFRSYM    DATA     WORD      TMR2
      0000009AH   SFRSYM    DATA     BYTE      SPI0FCN0
      000000C7H   SFRSYM    DATA     BYTE      ADC0ASCT
      000000D8H.2 SFRSYM    DATA     BIT       PCA0CN0_CCF2
      000000E0H.7 SFRSYM    DATA     BIT       ACC_ACC7
      00000094H   SFRSYM    DATA     WORD      TMR3
      0000009BH   SFRSYM    DATA     BYTE      SPI0FCN1
      000000C0H.2 SFRSYM    DATA     BIT       TMR5CN0_TR5
      000000D8H.3 SFRSYM    DATA     BIT       PCA0CN0_CCF3
      000000A4H   SFRSYM    DATA     WORD      TMR4
      00000094H   SFRSYM    DATA     BYTE      SBCON1
      000000D8H.4 SFRSYM    DATA     BIT       PCA0CN0_CCF4
      000000D4H   SFRSYM    DATA     WORD      TMR5
      000000C0H.3 SFRSYM    DATA     BIT       SMB0CN0_ACKRQ
      000000D8H.5 SFRSYM    DATA     BIT       PCA0CN0_CCF5
LX51 LINKER/LOCATER V4.66.30.0                                                        05/06/2017  23:10:53  PAGE 27


      000000FFH   SFRSYM    DATA     BYTE      VDM0CN
      000000F1H   SFRSYM    DATA     BYTE      P0MDIN
      000000AFH   SFRSYM    DATA     BYTE      CLU0FN
      00000098H.4 SFRSYM    DATA     BIT       SCON0_REN
      000000ACH   SFRSYM    DATA     BYTE      SMB0TC
      000000F2H   SFRSYM    DATA     BYTE      P1MDIN
      000000B2H   SFRSYM    DATA     BYTE      CLU1FN
      000000C8H.4 SFRSYM    DATA     BIT       SCON1_REN
      000000F3H   SFRSYM    DATA     BYTE      P2MDIN
      000000B5H   SFRSYM    DATA     BYTE      CLU2FN
      000000C0H.4 SFRSYM    DATA     BIT       SMB0CN0_STO
      000000F4H   SFRSYM    DATA     BYTE      P3MDIN
      000000B9H   SFRSYM    DATA     BYTE      I2C0STAT
      000000BBH   SFRSYM    DATA     BYTE      I2C0DOUT
      000000BEH   SFRSYM    DATA     BYTE      CLU3FN
      00000096H   SFRSYM    DATA     BYTE      SBRLH1
      000000FEH   SFRSYM    DATA     BYTE      P0MASK
      000000D8H.5 SFRSYM    DATA     BIT       UART1FCN1_TXHOLD
      000000EEH   SFRSYM    DATA     BYTE      P1MASK
      000000FCH   SFRSYM    DATA     BYTE      P2MASK
      000000D0H.3 SFRSYM    DATA     BIT       PSW_RS0
      000000D8H.7 SFRSYM    DATA     BIT       PCA0CN0_CF
      0000009EH   SFRSYM    DATA     BYTE      PCA0CENT
      000000BAH   SFRSYM    DATA     BYTE      I2C0CN0
      000000D2H   SFRSYM    DATA     BYTE      CRC0ST
      000000F8H.4 SFRSYM    DATA     BIT       SPI0CN0_RXOVRN
      000000D0H.4 SFRSYM    DATA     BIT       PSW_RS1
      00000095H   SFRSYM    DATA     BYTE      SBRLL1
      000000C8H.2 SFRSYM    DATA     BIT       SCON1_RBX
      00000091H   SFRSYM    DATA     BYTE      DAC0CF0
      000000BCH   SFRSYM    DATA     BYTE      ADC0CF0
      000000C8H   SFRSYM    DATA     BIT       TMR2CN0_T2XCLK0
      00000093H   SFRSYM    DATA     BYTE      DAC1CF0
      00000092H   SFRSYM    DATA     BYTE      DAC0CF1
      000000B9H   SFRSYM    DATA     BYTE      ADC0CF1
      000000C8H.1 SFRSYM    DATA     BIT       TMR2CN0_T2XCLK1
      000000C8H.3 SFRSYM    DATA     BIT       SCON1_TBX
      000000E8H.7 SFRSYM    DATA     BIT       ADC0CN0_ADEN
      00000089H   SFRSYM    DATA     BYTE      TMOD
      00000088H   SFRSYM    DATA     BYTE      TCON
      00000095H   SFRSYM    DATA     BYTE      DAC2CF0
      00000094H   SFRSYM    DATA     BYTE      DAC1CF1
      000000DFH   SFRSYM    DATA     BYTE      ADC0CF2
      0000009AH   SFRSYM    DATA     BYTE      DAC3CF0
      00000096H   SFRSYM    DATA     BYTE      DAC2CF1
      000000CFH   SFRSYM    DATA     BYTE      CRC0FLIP
      000000D0H   SFRSYM    DATA     BIT       PSW_PARITY
      000000A8H.4 SFRSYM    DATA     BIT       IE_ES0
      0000009CH   SFRSYM    DATA     BYTE      DAC3CF1
      0000009FH   SFRSYM    DATA     BYTE      CMP0MX
      00000098H   SFRSYM    DATA     BIT       TMR4CN0_T4XCLK0
      000000A8H.1 SFRSYM    DATA     BIT       IE_ET0
      000000AAH   SFRSYM    DATA     BYTE      CMP1MX
      00000098H.1 SFRSYM    DATA     BIT       TMR4CN0_T4XCLK1
      000000A8H.3 SFRSYM    DATA     BIT       IE_ET1
      000000D4H   SFRSYM    DATA     BYTE      P0SKIP
      000000D1H   SFRSYM    DATA     BYTE      CLOUT0
      00000090H.7 SFRSYM    DATA     BIT       BSP_JOYSTICK
      000000D8H   SFRSYM    DATA     BIT       UART1FCN1_RIE
      000000C0H   SFRSYM    DATA     BIT       TMR5CN0_T5XCLK0
      000000A8H.5 SFRSYM    DATA     BIT       IE_ET2
      00000088H   SFRSYM    DATA     BIT       DACGCF0_D1SRC0
LX51 LINKER/LOCATER V4.66.30.0                                                        05/06/2017  23:10:53  PAGE 28


      000000D5H   SFRSYM    DATA     BYTE      P1SKIP
      000000C0H.1 SFRSYM    DATA     BIT       TMR5CN0_T5XCLK1
      00000088H.1 SFRSYM    DATA     BIT       DACGCF0_D1SRC1
      000000CCH   SFRSYM    DATA     BYTE      P2SKIP
      00000084H   SFRSYM    DATA     BYTE      CLU0MX
      000000E8H   SFRSYM    DATA     BYTE      ADC0CN0
      000000D8H.4 SFRSYM    DATA     BIT       UART1FCN1_TIE
      000000A8H   SFRSYM    DATA     BIT       IE_EX0
      00000088H.4 SFRSYM    DATA     BIT       DACGCF0_D3SRC0
      00000085H   SFRSYM    DATA     BYTE      CLU1MX
      000000B2H   SFRSYM    DATA     BYTE      ADC0CN1
      000000D8H.6 SFRSYM    DATA     BIT       PCA0CN0_CR
      000000A8H.2 SFRSYM    DATA     BIT       IE_EX1
      00000088H.5 SFRSYM    DATA     BIT       DACGCF0_D3SRC1
      00000091H   SFRSYM    DATA     BYTE      CLU2MX
      000000B3H   SFRSYM    DATA     BYTE      ADC0CN2
      00000090H.5 SFRSYM    DATA     BIT       BSP_LED_B
      000000C8H.7 SFRSYM    DATA     BIT       SCON1_OVR
      000000AAH   SFRSYM    DATA     BYTE      PSTAT0
      000000AEH   SFRSYM    DATA     BYTE      CLU3MX
      000000A0H.2 SFRSYM    DATA     BIT       BSP_BC_EN
      00000098H.7 SFRSYM    DATA     BIT       SCON0_SMODE
      000000B5H   SFRSYM    DATA     BYTE      DEVICEID
      000000A9H   SFRSYM    DATA     BYTE      CLKSEL
      000000F8H   SFRSYM    DATA     BIT       SPI0CN0_SPIEN
      00000085H   SFRSYM    DATA     BYTE      DAC0H
      000000F0H   SFRSYM    DATA     BYTE      B
      000000BEH   SFRSYM    DATA     BYTE      ADC0H
      000000FFH   SFRSYM    DATA     BYTE      I2C0ADM
      0000008AH   SFRSYM    DATA     BYTE      DAC1H
      00000090H.4 SFRSYM    DATA     BIT       BSP_LED_G
      00000088H.2 SFRSYM    DATA     BIT       DACGCF0_D1AMEN
      0000008CH   SFRSYM    DATA     BYTE      DAC2H
      0000008EH   SFRSYM    DATA     BYTE      DAC3H
      00000088H.6 SFRSYM    DATA     BIT       DACGCF0_D3AMEN
      000000CAH   SFRSYM    DATA     WORD      TMR2RL
      00000084H   SFRSYM    DATA     BYTE      DAC0L
      000000BDH   SFRSYM    DATA     BYTE      ADC0L
      00000092H   SFRSYM    DATA     WORD      TMR3RL
      00000089H   SFRSYM    DATA     BYTE      DAC1L
      000000A2H   SFRSYM    DATA     WORD      TMR4RL
      000000D8H   SFRSYM    DATA     BYTE      PCA0CN0
      0000008BH   SFRSYM    DATA     BYTE      DAC2L
      000000E0H   SFRSYM    DATA     BYTE      ACC
      000000D2H   SFRSYM    DATA     WORD      TMR5RL
      000000D9H   SFRSYM    DATA     BYTE      UART0PCF
      0000008DH   SFRSYM    DATA     BYTE      DAC3L
      000000FBH   SFRSYM    DATA     WORD      PCA0CP0
      000000DAH   SFRSYM    DATA     BYTE      UART1PCF
      000000E9H   SFRSYM    DATA     WORD      PCA0CP1
      00000088H   SFRSYM    DATA     BYTE      DACGCF0
      000000EBH   SFRSYM    DATA     WORD      PCA0CP2
      000000BCH   SFRSYM    DATA     BYTE      I2C0DIN
      00000098H   SFRSYM    DATA     BYTE      DACGCF1
      000000CEH   SFRSYM    DATA     BYTE      CRC0CN0
      000000F4H   SFRSYM    DATA     WORD      PCA0CP3
      0000008CH   SFRSYM    DATA     BYTE      TH0
      000000A2H   SFRSYM    DATA     BYTE      DACGCF2
      00000086H   SFRSYM    DATA     BYTE      CRC0CN1
      000000B8H.4 SFRSYM    DATA     BIT       IP_PS0
      00000084H   SFRSYM    DATA     WORD      PCA0CP4
      000000FAH   SFRSYM    DATA     BYTE      UART1FCT
LX51 LINKER/LOCATER V4.66.30.0                                                        05/06/2017  23:10:53  PAGE 29


      0000008DH   SFRSYM    DATA     BYTE      TH1
      000000FAH   SFRSYM    DATA     BYTE      PCA0H
      000000F5H   SFRSYM    DATA     BYTE      I2C0FCT
      00000090H.6 SFRSYM    DATA     BIT       BSP_LED_R
      000000B8H.1 SFRSYM    DATA     BIT       IP_PT0
      000000DDH   SFRSYM    DATA     WORD      PCA0CP5
      000000C7H   SFRSYM    DATA     BYTE      CLIE0
      000000B8H.3 SFRSYM    DATA     BIT       IP_PT1
      00000088H.3 SFRSYM    DATA     BIT       DACGCF0_D01REFSL
      000000B5H   SFRSYM    DATA     WORD      ADC0ASA
      000000E8H   SFRSYM    DATA     BYTE      CLIF0
      000000C0H.2 SFRSYM    DATA     BIT       SMB0CN0_ARBLOST
      000000B8H.5 SFRSYM    DATA     BIT       IP_PT2
      0000008AH   SFRSYM    DATA     BYTE      TL0
      000000D0H.5 SFRSYM    DATA     BIT       PSW_F0
      000000A8H.6 SFRSYM    DATA     BIT       IE_ESPI0
      0000008BH   SFRSYM    DATA     BYTE      TL1
      000000F9H   SFRSYM    DATA     BYTE      PCA0L
      000000C0H   SFRSYM    DATA     BIT       SMB0CN0_SI
      000000D0H.1 SFRSYM    DATA     BIT       PSW_F1
      00000080H   SFRSYM    DATA     BIT       P0_B0
      000000B8H   SFRSYM    DATA     BIT       IP_PX0
      00000090H   SFRSYM    DATA     BIT       P1_B0
      00000080H.1 SFRSYM    DATA     BIT       P0_B1
      000000B8H.2 SFRSYM    DATA     BIT       IP_PX1
      00000088H.7 SFRSYM    DATA     BIT       DACGCF0_D23REFSL
      0000009EH   SFRSYM    DATA     BYTE      UART1LIN
      0000009BH   SFRSYM    DATA     BYTE      CMP0CN0
      000000C6H   SFRSYM    DATA     BYTE      CLEN0
      00000088H.1 SFRSYM    DATA     BIT       TCON_IE0
      000000A0H   SFRSYM    DATA     BIT       P2_B0
      00000090H.1 SFRSYM    DATA     BIT       P1_B1
      00000080H.2 SFRSYM    DATA     BIT       P0_B2
      000000BFH   SFRSYM    DATA     BYTE      CMP1CN0
      00000099H   SFRSYM    DATA     BYTE      CMP0CN1
      00000088H.3 SFRSYM    DATA     BIT       TCON_IE1
      000000B0H   SFRSYM    DATA     BIT       P3_B0
      000000A0H.1 SFRSYM    DATA     BIT       P2_B1
      00000090H.2 SFRSYM    DATA     BIT       P1_B2
      00000080H.3 SFRSYM    DATA     BIT       P0_B3
      000000C0H   SFRSYM    DATA     BYTE      SMB0CN0
      000000ACH   SFRSYM    DATA     BYTE      CMP1CN1
      000000B0H.1 SFRSYM    DATA     BIT       P3_B1
      000000A0H.2 SFRSYM    DATA     BIT       P2_B2
      00000090H.3 SFRSYM    DATA     BIT       P1_B3
      00000080H.4 SFRSYM    DATA     BIT       P0_B4
      000000B0H.2 SFRSYM    DATA     BIT       P3_B2
      000000A0H.3 SFRSYM    DATA     BIT       P2_B3
      00000090H.4 SFRSYM    DATA     BIT       P1_B4
      00000080H.5 SFRSYM    DATA     BIT       P0_B5
      00000098H   SFRSYM    DATA     BIT       DACGCF1_D0UDIS
      000000D8H.1 SFRSYM    DATA     BIT       UART1FCN1_RXTO0
      000000B0H.3 SFRSYM    DATA     BIT       P3_B3
      000000A0H.4 SFRSYM    DATA     BIT       P2_B4
      00000090H.5 SFRSYM    DATA     BIT       P1_B5
      00000080H.6 SFRSYM    DATA     BIT       P0_B6
      00000098H.1 SFRSYM    DATA     BIT       DACGCF1_D1UDIS
      000000EEH   SFRSYM    DATA     BYTE      EIP1H
      000000D8H.2 SFRSYM    DATA     BIT       UART1FCN1_RXTO1
      000000B0H.4 SFRSYM    DATA     BIT       P3_B4
      000000A0H.5 SFRSYM    DATA     BIT       P2_B5
      00000090H.6 SFRSYM    DATA     BIT       P1_B6
LX51 LINKER/LOCATER V4.66.30.0                                                        05/06/2017  23:10:53  PAGE 30


      00000080H.7 SFRSYM    DATA     BIT       P0_B7
      00000098H.2 SFRSYM    DATA     BIT       DACGCF1_D2UDIS
      000000C5H   SFRSYM    DATA     BYTE      SMB0RXLN
      000000F6H   SFRSYM    DATA     BYTE      EIP2H
      000000A0H.6 SFRSYM    DATA     BIT       P2_B6
      00000090H.7 SFRSYM    DATA     BIT       P1_B7
      00000098H.3 SFRSYM    DATA     BIT       DACGCF1_D3UDIS
      000000B0H.7 SFRSYM    DATA     BIT       P3_B7
      00000083H   SFRSYM    DATA     BYTE      DPH
      000000C4H   SFRSYM    DATA     BYTE      ADC0GTH
      000000C8H.7 SFRSYM    DATA     BIT       TMR2CN0_TF2H
      000000C8H.3 SFRSYM    DATA     BIT       TMR2CN0_T2SPLIT
      000000D0H.6 SFRSYM    DATA     BIT       PSW_AC
      000000F8H   SFRSYM    DATA     BYTE      SPI0CN0
      000000C7H   SFRSYM    DATA     BYTE      HFO0CAL
      00000088H.5 SFRSYM    DATA     BIT       TCON_TF0
      00000098H   SFRSYM    DATA     BIT       SCON0_RI
      000000D6H   SFRSYM    DATA     BYTE      HFO1CAL
      00000082H   SFRSYM    DATA     BYTE      DPL
      00000088H.7 SFRSYM    DATA     BIT       TCON_TF1
      000000C8H   SFRSYM    DATA     BIT       SCON1_RI
      00000099H   SFRSYM    DATA     BYTE      SBUF0
      00000087H   SFRSYM    DATA     BYTE      PCON0
      000000F2H   SFRSYM    DATA     BYTE      IPH
      000000C3H   SFRSYM    DATA     BYTE      ADC0GTL
      00000098H.7 SFRSYM    DATA     BIT       TMR4CN0_TF4H
      00000098H.3 SFRSYM    DATA     BIT       TMR4CN0_T4SPLIT
      000000C8H.6 SFRSYM    DATA     BIT       TMR2CN0_TF2L
      00000098H.1 SFRSYM    DATA     BIT       SCON0_TI
      00000092H   SFRSYM    DATA     BYTE      SBUF1
      000000CDH   SFRSYM    DATA     BYTE      PCON1
      000000C6H   SFRSYM    DATA     BYTE      ADC0LTH
      00000088H   SFRSYM    DATA     BIT       TCON_IT0
      000000C8H.1 SFRSYM    DATA     BIT       SCON1_TI
      000000EFH   SFRSYM    DATA     BYTE      RSTSRC
      000000FDH   SFRSYM    DATA     BYTE      P0MAT
      000000CBH   SFRSYM    DATA     BYTE      CRC0DAT
      000000C0H.7 SFRSYM    DATA     BIT       TMR5CN0_TF5H
      000000C0H.3 SFRSYM    DATA     BIT       TMR5CN0_T5SPLIT
      00000088H.2 SFRSYM    DATA     BIT       TCON_IT1
      000000D7H   SFRSYM    DATA     BYTE      SFRSTACK
      00000098H   SFRSYM    DATA     BYTE      SCON0
      000000F6H   SFRSYM    DATA     BYTE      PRTDRV
      000000EDH   SFRSYM    DATA     BYTE      P1MAT
      000000E8H.3 SFRSYM    DATA     BIT       ADC0CN0_ADWINT
      00000093H   SFRSYM    DATA     BYTE      SMOD1
      000000C8H   SFRSYM    DATA     BYTE      SCON1
      000000FBH   SFRSYM    DATA     BYTE      P2MAT
      00000098H.6 SFRSYM    DATA     BIT       TMR4CN0_TF4L
      000000E8H.4 SFRSYM    DATA     BIT       ADC0CN0_ADBUSY
      000000D6H   SFRSYM    DATA     BYTE      SMB0ADM
      000000C5H   SFRSYM    DATA     BYTE      ADC0LTL
      000000F8H.5 SFRSYM    DATA     BIT       SPI0CN0_MODF
      000000B8H.6 SFRSYM    DATA     BIT       IP_PSPI0
      000000E8H.1 SFRSYM    DATA     BIT       ADC0CN0_ADGN0
      0000009CH   SFRSYM    DATA     BYTE      PCA0CLR
      000000C0H.6 SFRSYM    DATA     BIT       TMR5CN0_TF5L
      000000E8H.2 SFRSYM    DATA     BIT       ADC0CN0_ADGN1
      000000C8H   SFRSYM    DATA     BYTE      TMR2CN0
      00000091H   SFRSYM    DATA     BYTE      TMR3CN0
      000000FDH   SFRSYM    DATA     BYTE      TMR2CN1
      00000098H   SFRSYM    DATA     BYTE      TMR4CN0
LX51 LINKER/LOCATER V4.66.30.0                                                        05/06/2017  23:10:53  PAGE 31


      000000FEH   SFRSYM    DATA     BYTE      TMR3CN1
      000000B0H.4 SFRSYM    DATA     BIT       BSP_DISP_EN
      000000C0H   SFRSYM    DATA     BYTE      TMR5CN0
      000000FFH   SFRSYM    DATA     BYTE      TMR4CN1
      000000D7H   SFRSYM    DATA     BYTE      SMB0ADR
      00000088H.4 SFRSYM    DATA     BIT       TCON_TR0
      000000F1H   SFRSYM    DATA     BYTE      TMR5CN1
      000000C8H.4 SFRSYM    DATA     BIT       TMR2CN0_TF2CEN
      00000088H.6 SFRSYM    DATA     BIT       TCON_TR1
      000000C2H   SFRSYM    DATA     BYTE      SMB0DAT
      000000A0H.6 SFRSYM    DATA     BIT       BSP_DISP_CS
      000000CFH   SFRSYM    DATA     BYTE      TMR2H
      000000A1H   SFRSYM    DATA     BYTE      SPI0CFG
      00000095H   SFRSYM    DATA     BYTE      TMR3H
      000000EFH   SFRSYM    DATA     BYTE      HFOCN
      000000D3H   SFRSYM    DATA     BYTE      CRC0CNT
      000000A5H   SFRSYM    DATA     BYTE      TMR4H
      00000098H.4 SFRSYM    DATA     BIT       TMR4CN0_TF4CEN
      000000D5H   SFRSYM    DATA     BYTE      TMR5H
      000000EFH   SFRSYM    DATA     BYTE      SMB0FCT
      00000096H   SFRSYM    DATA     BYTE      PCA0POL
      000000CEH   SFRSYM    DATA     BYTE      TMR2L
      000000C0H.4 SFRSYM    DATA     BIT       TMR5CN0_TF5CEN
      000000F8H.7 SFRSYM    DATA     BIT       SPI0CN0_SPIF
      00000094H   SFRSYM    DATA     BYTE      TMR3L
      000000A8H.7 SFRSYM    DATA     BIT       IE_EA
      000000A4H   SFRSYM    DATA     BYTE      TMR4L
      000000D4H   SFRSYM    DATA     BYTE      TMR5L
      000000C8H.5 SFRSYM    DATA     BIT       TMR2CN0_TF2LEN
      000000F8H.6 SFRSYM    DATA     BIT       SPI0CN0_WCOL
      000000F8H.2 SFRSYM    DATA     BIT       SPI0CN0_NSSMD0
      000000D0H.7 SFRSYM    DATA     BIT       PSW_CY
      0000009DH   SFRSYM    DATA     BYTE      UART1FCN0
      000000DFH   SFRSYM    DATA     BYTE      SPI0PCF
      000000A3H   SFRSYM    DATA     BYTE      SPI0DAT
      000000ADH   SFRSYM    DATA     BYTE      I2C0FCN0
      000000F8H.3 SFRSYM    DATA     BIT       SPI0CN0_NSSMD1
      000000BDH   SFRSYM    DATA     WORD      ADC0
      000000D8H   SFRSYM    DATA     BYTE      UART1FCN1
      000000ABH   SFRSYM    DATA     BYTE      I2C0FCN1
      000000E8H   SFRSYM    DATA     BIT       CLIF0_C0FIF
      00000098H.5 SFRSYM    DATA     BIT       TMR4CN0_TF4LEN
      000000E8H.2 SFRSYM    DATA     BIT       CLIF0_C1FIF
      000000D0H   SFRSYM    DATA     BYTE      PSW
      000000F7H   SFRSYM    DATA     BYTE      PCA0PWM
      000000E8H.4 SFRSYM    DATA     BIT       CLIF0_C2FIF
      000000F7H   SFRSYM    DATA     BYTE      SPI0FCT
      000000B6H   SFRSYM    DATA     BYTE      REVID
      000000C0H.5 SFRSYM    DATA     BIT       TMR5CN0_TF5LEN
      000000E8H.6 SFRSYM    DATA     BIT       CLIF0_C3FIF
      000000B7H   SFRSYM    DATA     BYTE      FLKEY

      01002C8CH   BLOCK     CODE     ---       LVL=0
      00000007H   SYMBOL    DATA     BYTE      input
      01002C8CH   BLOCK     CODE     NEAR LAB  LVL=1
      00000007H   SYMBOL    DATA     BYTE      output
      ---         BLOCKEND  ---      ---       LVL=1
      01002C8CH   LINE      CODE     ---       #40
      01002C8CH   LINE      CODE     ---       #41
      01002C8CH   LINE      CODE     ---       #42
      01002C8CH   LINE      CODE     ---       #44
      01002C9BH   LINE      CODE     ---       #45
LX51 LINKER/LOCATER V4.66.30.0                                                        05/06/2017  23:10:53  PAGE 32


      01002CABH   LINE      CODE     ---       #46
      01002CB7H   LINE      CODE     ---       #48
      01002CB7H   LINE      CODE     ---       #49
      ---         BLOCKEND  ---      ---       LVL=0

      01002C51H   BLOCK     CODE     ---       LVL=0
      020000B9H   SYMBOL    XDATA    BYTE      cmd
      01002C56H   BLOCK     CODE     NEAR LAB  LVL=1
      00000004H   SYMBOL    DATA     WORD      tick
      ---         BLOCKEND  ---      ---       LVL=1
      01002C51H   LINE      CODE     ---       #57
      01002C56H   LINE      CODE     ---       #58
      01002C56H   LINE      CODE     ---       #59
      01002C5DH   LINE      CODE     ---       #61
      01002C75H   LINE      CODE     ---       #62
      01002C75H   LINE      CODE     ---       #64
      01002C7CH   LINE      CODE     ---       #66
      01002C86H   LINE      CODE     ---       #67
      01002C86H   LINE      CODE     ---       #69
      01002C8BH   LINE      CODE     ---       #70
      ---         BLOCKEND  ---      ---       LVL=0
      00000007H   SYMBOL    DATA     BYTE      i

      01002A7AH   BLOCK     CODE     ---       LVL=0
      020000A1H   SYMBOL    XDATA    BYTE      row
      020000A2H   SYMBOL    XDATA    ---       line
      01002A88H   BLOCK     CODE     NEAR LAB  LVL=1
      00000007H   SYMBOL    DATA     BYTE      i
      020000A5H   SYMBOL    XDATA    ---       cmd
      ---         BLOCKEND  ---      ---       LVL=1
      01002A7AH   LINE      CODE     ---       #157
      01002A88H   LINE      CODE     ---       #158
      01002A88H   LINE      CODE     ---       #163
      01002A92H   LINE      CODE     ---       #164
      01002AA0H   LINE      CODE     ---       #166
      01002AA2H   LINE      CODE     ---       #167
      01002AA2H   LINE      CODE     ---       #168
      01002AC2H   LINE      CODE     ---       #169
      01002AC7H   LINE      CODE     ---       #172
      01002ACCH   LINE      CODE     ---       #173
      01002ACEH   LINE      CODE     ---       #176
      ---         BLOCKEND  ---      ---       LVL=0

      ---         MODULE    ---      ---       RENDER
      020000A1H   PUBLIC    XDATA    BYTE      ?_RENDER_StrLine?BYTE
      01002699H   PUBLIC    CODE     ---       _RENDER_StrLine
      01002D6EH   PUBLIC    CODE     ---       _RENDER_ClrLine
      000000A2H   SFRSYM    DATA     BYTE      SPI0CKR
      00000080H   SFRSYM    DATA     BYTE      P0
      000000C8H.6 SFRSYM    DATA     BIT       SCON1_PERR
      000000D0H.2 SFRSYM    DATA     BIT       PSW_OV
      00000086H   SFRSYM    DATA     BYTE      XOSC0CN
      00000090H   SFRSYM    DATA     BYTE      P1
      000000F8H.1 SFRSYM    DATA     BIT       SPI0CN0_TXNF
      00000097H   SFRSYM    DATA     BYTE      WDTCN
      000000A0H   SFRSYM    DATA     BYTE      P2
      000000B0H   SFRSYM    DATA     BYTE      P3
      000000C0H.7 SFRSYM    DATA     BIT       SMB0CN0_MASTER
      000000F9H   SFRSYM    DATA     WORD      PCA0
      000000E6H   SFRSYM    DATA     BYTE      EIE1
      000000C0H.1 SFRSYM    DATA     BIT       SMB0CN0_ACK
      000000E8H.1 SFRSYM    DATA     BIT       CLIF0_C0RIF
LX51 LINKER/LOCATER V4.66.30.0                                                        05/06/2017  23:10:53  PAGE 33


      000000F3H   SFRSYM    DATA     BYTE      EIE2
      000000E8H.3 SFRSYM    DATA     BIT       CLIF0_C1RIF
      000000E8H.5 SFRSYM    DATA     BIT       CLIF0_C2RIF
      0000008FH   SFRSYM    DATA     BYTE      PSCTL
      00000080H.2 SFRSYM    DATA     BIT       BSP_PB0
      000000E8H.7 SFRSYM    DATA     BIT       CLIF0_C3RIF
      000000E4H   SFRSYM    DATA     BYTE      IT01CF
      00000080H.3 SFRSYM    DATA     BIT       BSP_PB1
      000000C0H.6 SFRSYM    DATA     BIT       SMB0CN0_TXMODE
      000000ADH   SFRSYM    DATA     BYTE      DERIVID
      000000A7H   SFRSYM    DATA     BYTE      SFRPAGE
      000000A4H   SFRSYM    DATA     BYTE      P0MDOUT
      000000A5H   SFRSYM    DATA     BYTE      P1MDOUT
      000000E8H.5 SFRSYM    DATA     BIT       ADC0CN0_ADINT
      000000CBH   SFRSYM    DATA     BYTE      TMR2RLH
      000000A6H   SFRSYM    DATA     BYTE      P2MDOUT
      000000A8H   SFRSYM    DATA     BYTE      IE
      00000093H   SFRSYM    DATA     BYTE      TMR3RLH
      0000009CH   SFRSYM    DATA     BYTE      P3MDOUT
      000000A3H   SFRSYM    DATA     BYTE      TMR4RLH
      000000BBH   SFRSYM    DATA     BYTE      EIP1
      000000D3H   SFRSYM    DATA     BYTE      TMR5RLH
      000000EDH   SFRSYM    DATA     BYTE      EIP2
      00000098H.2 SFRSYM    DATA     BIT       SCON0_RB8
      000000CAH   SFRSYM    DATA     BYTE      TMR2RLL
      000000FCH   SFRSYM    DATA     BYTE      PCA0CPH0
      00000092H   SFRSYM    DATA     BYTE      TMR3RLL
      000000EAH   SFRSYM    DATA     BYTE      PCA0CPH1
      00000098H.3 SFRSYM    DATA     BIT       SCON0_TB8
      000000F0H   SFRSYM    DATA     BIT       B_B0
      00000082H   SFRSYM    DATA     WORD      DP
      000000A2H   SFRSYM    DATA     BYTE      TMR4RLL
      000000ECH   SFRSYM    DATA     BYTE      PCA0CPH2
      000000F0H.1 SFRSYM    DATA     BIT       B_B1
      000000C3H   SFRSYM    DATA     WORD      ADC0GT
      000000D2H   SFRSYM    DATA     BYTE      TMR5RLL
      000000F5H   SFRSYM    DATA     BYTE      PCA0CPH3
      000000BDH   SFRSYM    DATA     BYTE      I2C0SLAD
      000000D8H.3 SFRSYM    DATA     BIT       UART1FCN1_RFRQ
      000000F0H.2 SFRSYM    DATA     BIT       B_B2
      000000BCH   SFRSYM    DATA     BYTE      SFRPGCN
      000000FBH   SFRSYM    DATA     BYTE      PCA0CPL0
      00000085H   SFRSYM    DATA     BYTE      PCA0CPH4
      000000F0H.3 SFRSYM    DATA     BIT       B_B3
      000000D9H   SFRSYM    DATA     BYTE      PCA0MD
      000000DAH   SFRSYM    DATA     BYTE      PCA0CPM0
      000000E9H   SFRSYM    DATA     BYTE      PCA0CPL1
      000000DEH   SFRSYM    DATA     BYTE      PCA0CPH5
      000000D8H.7 SFRSYM    DATA     BIT       UART1FCN1_TFRQ
      000000F0H.4 SFRSYM    DATA     BIT       B_B4
      000000DBH   SFRSYM    DATA     BYTE      PCA0CPM1
      000000EBH   SFRSYM    DATA     BYTE      PCA0CPL2
      000000A1H   SFRSYM    DATA     BYTE      ADC0ASCF
      000000B6H   SFRSYM    DATA     BYTE      ADC0ASAH
      000000F0H.5 SFRSYM    DATA     BIT       B_B5
      000000E8H.6 SFRSYM    DATA     BIT       ADC0CN0_IPOEN
      000000E8H   SFRSYM    DATA     BIT       ADC0CN0_TEMPE
      000000DCH   SFRSYM    DATA     BYTE      PCA0CPM2
      000000F4H   SFRSYM    DATA     BYTE      PCA0CPL3
      000000B8H   SFRSYM    DATA     BYTE      IP
      000000F0H.6 SFRSYM    DATA     BIT       B_B6
      000000C5H   SFRSYM    DATA     WORD      ADC0LT
LX51 LINKER/LOCATER V4.66.30.0                                                        05/06/2017  23:10:53  PAGE 34


      000000AEH   SFRSYM    DATA     BYTE      PCA0CPM3
      00000084H   SFRSYM    DATA     BYTE      PCA0CPL4
      000000D8H.6 SFRSYM    DATA     BIT       UART1FCN1_TXNF
      00000098H.5 SFRSYM    DATA     BIT       SCON0_MCE
      000000F0H.7 SFRSYM    DATA     BIT       B_B7
      000000AFH   SFRSYM    DATA     BYTE      PCA0CPM4
      000000DDH   SFRSYM    DATA     BYTE      PCA0CPL5
      000000C3H   SFRSYM    DATA     BYTE      SMB0FCN0
      000000CCH   SFRSYM    DATA     BYTE      PCA0CPM5
      000000B5H   SFRSYM    DATA     BYTE      ADC0ASAL
      000000E1H   SFRSYM    DATA     BYTE      XBR0
      000000C4H   SFRSYM    DATA     BYTE      SMB0FCN1
      000000C1H   SFRSYM    DATA     BYTE      SMB0CF
      000000E2H   SFRSYM    DATA     BYTE      XBR1
      000000C1H   SFRSYM    DATA     BYTE      PFE0CN
      000000E7H   SFRSYM    DATA     BYTE      EMI0CN
      000000C0H.5 SFRSYM    DATA     BIT       SMB0CN0_STA
      000000E3H   SFRSYM    DATA     BYTE      XBR2
      000000B1H   SFRSYM    DATA     BYTE      CLU0CF
      000000BBH   SFRSYM    DATA     BYTE      ADC0MX
      000000E0H   SFRSYM    DATA     BIT       ACC_ACC0
      000000D1H   SFRSYM    DATA     BYTE      REF0CN
      000000B3H   SFRSYM    DATA     BYTE      CLU1CF
      0000008EH   SFRSYM    DATA     BYTE      CKCON0
      000000E0H.1 SFRSYM    DATA     BIT       ACC_ACC1
      000000C9H   SFRSYM    DATA     BYTE      REG0CN
      000000CAH   SFRSYM    DATA     BYTE      CRC0IN
      000000B6H   SFRSYM    DATA     BYTE      CLU2CF
      000000A6H   SFRSYM    DATA     BYTE      CKCON1
      000000C8H.2 SFRSYM    DATA     BIT       TMR2CN0_TR2
      000000E0H.2 SFRSYM    DATA     BIT       ACC_ACC2
      000000BFH   SFRSYM    DATA     BYTE      CLU3CF
      000000E0H.3 SFRSYM    DATA     BIT       ACC_ACC3
      00000081H   SFRSYM    DATA     BYTE      SP
      0000009DH   SFRSYM    DATA     BYTE      CMP0MD
      000000E0H.4 SFRSYM    DATA     BIT       ACC_ACC4
      000000B1H   SFRSYM    DATA     BYTE      LFO0CN
      000000ABH   SFRSYM    DATA     BYTE      CMP1MD
      000000D8H   SFRSYM    DATA     BIT       PCA0CN0_CCF0
      000000E0H.5 SFRSYM    DATA     BIT       ACC_ACC5
      00000098H.2 SFRSYM    DATA     BIT       TMR4CN0_TR4
      000000D8H.1 SFRSYM    DATA     BIT       PCA0CN0_CCF1
      000000E0H.6 SFRSYM    DATA     BIT       ACC_ACC6
      000000CEH   SFRSYM    DATA     WORD      TMR2
      0000009AH   SFRSYM    DATA     BYTE      SPI0FCN0
      000000C7H   SFRSYM    DATA     BYTE      ADC0ASCT
      000000D8H.2 SFRSYM    DATA     BIT       PCA0CN0_CCF2
      000000E0H.7 SFRSYM    DATA     BIT       ACC_ACC7
      00000094H   SFRSYM    DATA     WORD      TMR3
      0000009BH   SFRSYM    DATA     BYTE      SPI0FCN1
      000000C0H.2 SFRSYM    DATA     BIT       TMR5CN0_TR5
      000000D8H.3 SFRSYM    DATA     BIT       PCA0CN0_CCF3
      000000A4H   SFRSYM    DATA     WORD      TMR4
      00000094H   SFRSYM    DATA     BYTE      SBCON1
      000000D8H.4 SFRSYM    DATA     BIT       PCA0CN0_CCF4
      000000D4H   SFRSYM    DATA     WORD      TMR5
      000000C0H.3 SFRSYM    DATA     BIT       SMB0CN0_ACKRQ
      000000D8H.5 SFRSYM    DATA     BIT       PCA0CN0_CCF5
      000000FFH   SFRSYM    DATA     BYTE      VDM0CN
      000000F1H   SFRSYM    DATA     BYTE      P0MDIN
      000000AFH   SFRSYM    DATA     BYTE      CLU0FN
      00000098H.4 SFRSYM    DATA     BIT       SCON0_REN
LX51 LINKER/LOCATER V4.66.30.0                                                        05/06/2017  23:10:53  PAGE 35


      000000ACH   SFRSYM    DATA     BYTE      SMB0TC
      000000F2H   SFRSYM    DATA     BYTE      P1MDIN
      000000B2H   SFRSYM    DATA     BYTE      CLU1FN
      000000C8H.4 SFRSYM    DATA     BIT       SCON1_REN
      000000F3H   SFRSYM    DATA     BYTE      P2MDIN
      000000B5H   SFRSYM    DATA     BYTE      CLU2FN
      000000C0H.4 SFRSYM    DATA     BIT       SMB0CN0_STO
      000000F4H   SFRSYM    DATA     BYTE      P3MDIN
      000000B9H   SFRSYM    DATA     BYTE      I2C0STAT
      000000BBH   SFRSYM    DATA     BYTE      I2C0DOUT
      000000BEH   SFRSYM    DATA     BYTE      CLU3FN
      00000096H   SFRSYM    DATA     BYTE      SBRLH1
      000000FEH   SFRSYM    DATA     BYTE      P0MASK
      000000D8H.5 SFRSYM    DATA     BIT       UART1FCN1_TXHOLD
      000000EEH   SFRSYM    DATA     BYTE      P1MASK
      000000FCH   SFRSYM    DATA     BYTE      P2MASK
      000000D0H.3 SFRSYM    DATA     BIT       PSW_RS0
      000000D8H.7 SFRSYM    DATA     BIT       PCA0CN0_CF
      0000009EH   SFRSYM    DATA     BYTE      PCA0CENT
      000000BAH   SFRSYM    DATA     BYTE      I2C0CN0
      000000D2H   SFRSYM    DATA     BYTE      CRC0ST
      000000F8H.4 SFRSYM    DATA     BIT       SPI0CN0_RXOVRN
      000000D0H.4 SFRSYM    DATA     BIT       PSW_RS1
      00000095H   SFRSYM    DATA     BYTE      SBRLL1
      000000C8H.2 SFRSYM    DATA     BIT       SCON1_RBX
      00000091H   SFRSYM    DATA     BYTE      DAC0CF0
      000000BCH   SFRSYM    DATA     BYTE      ADC0CF0
      000000C8H   SFRSYM    DATA     BIT       TMR2CN0_T2XCLK0
      00000093H   SFRSYM    DATA     BYTE      DAC1CF0
      00000092H   SFRSYM    DATA     BYTE      DAC0CF1
      000000B9H   SFRSYM    DATA     BYTE      ADC0CF1
      000000C8H.1 SFRSYM    DATA     BIT       TMR2CN0_T2XCLK1
      000000C8H.3 SFRSYM    DATA     BIT       SCON1_TBX
      000000E8H.7 SFRSYM    DATA     BIT       ADC0CN0_ADEN
      00000089H   SFRSYM    DATA     BYTE      TMOD
      00000088H   SFRSYM    DATA     BYTE      TCON
      00000095H   SFRSYM    DATA     BYTE      DAC2CF0
      00000094H   SFRSYM    DATA     BYTE      DAC1CF1
      000000DFH   SFRSYM    DATA     BYTE      ADC0CF2
      0000009AH   SFRSYM    DATA     BYTE      DAC3CF0
      00000096H   SFRSYM    DATA     BYTE      DAC2CF1
      000000CFH   SFRSYM    DATA     BYTE      CRC0FLIP
      000000D0H   SFRSYM    DATA     BIT       PSW_PARITY
      000000A8H.4 SFRSYM    DATA     BIT       IE_ES0
      0000009CH   SFRSYM    DATA     BYTE      DAC3CF1
      0000009FH   SFRSYM    DATA     BYTE      CMP0MX
      00000098H   SFRSYM    DATA     BIT       TMR4CN0_T4XCLK0
      000000A8H.1 SFRSYM    DATA     BIT       IE_ET0
      000000AAH   SFRSYM    DATA     BYTE      CMP1MX
      00000098H.1 SFRSYM    DATA     BIT       TMR4CN0_T4XCLK1
      000000A8H.3 SFRSYM    DATA     BIT       IE_ET1
      000000D4H   SFRSYM    DATA     BYTE      P0SKIP
      000000D1H   SFRSYM    DATA     BYTE      CLOUT0
      00000090H.7 SFRSYM    DATA     BIT       BSP_JOYSTICK
      000000D8H   SFRSYM    DATA     BIT       UART1FCN1_RIE
      000000C0H   SFRSYM    DATA     BIT       TMR5CN0_T5XCLK0
      000000A8H.5 SFRSYM    DATA     BIT       IE_ET2
      00000088H   SFRSYM    DATA     BIT       DACGCF0_D1SRC0
      000000D5H   SFRSYM    DATA     BYTE      P1SKIP
      000000C0H.1 SFRSYM    DATA     BIT       TMR5CN0_T5XCLK1
      00000088H.1 SFRSYM    DATA     BIT       DACGCF0_D1SRC1
      000000CCH   SFRSYM    DATA     BYTE      P2SKIP
LX51 LINKER/LOCATER V4.66.30.0                                                        05/06/2017  23:10:53  PAGE 36


      00000084H   SFRSYM    DATA     BYTE      CLU0MX
      000000E8H   SFRSYM    DATA     BYTE      ADC0CN0
      000000D8H.4 SFRSYM    DATA     BIT       UART1FCN1_TIE
      000000A8H   SFRSYM    DATA     BIT       IE_EX0
      00000088H.4 SFRSYM    DATA     BIT       DACGCF0_D3SRC0
      00000085H   SFRSYM    DATA     BYTE      CLU1MX
      000000B2H   SFRSYM    DATA     BYTE      ADC0CN1
      000000D8H.6 SFRSYM    DATA     BIT       PCA0CN0_CR
      000000A8H.2 SFRSYM    DATA     BIT       IE_EX1
      00000088H.5 SFRSYM    DATA     BIT       DACGCF0_D3SRC1
      00000091H   SFRSYM    DATA     BYTE      CLU2MX
      000000B3H   SFRSYM    DATA     BYTE      ADC0CN2
      00000090H.5 SFRSYM    DATA     BIT       BSP_LED_B
      000000C8H.7 SFRSYM    DATA     BIT       SCON1_OVR
      000000AAH   SFRSYM    DATA     BYTE      PSTAT0
      000000AEH   SFRSYM    DATA     BYTE      CLU3MX
      000000A0H.2 SFRSYM    DATA     BIT       BSP_BC_EN
      00000098H.7 SFRSYM    DATA     BIT       SCON0_SMODE
      000000B5H   SFRSYM    DATA     BYTE      DEVICEID
      000000A9H   SFRSYM    DATA     BYTE      CLKSEL
      000000F8H   SFRSYM    DATA     BIT       SPI0CN0_SPIEN
      00000085H   SFRSYM    DATA     BYTE      DAC0H
      000000F0H   SFRSYM    DATA     BYTE      B
      000000BEH   SFRSYM    DATA     BYTE      ADC0H
      000000FFH   SFRSYM    DATA     BYTE      I2C0ADM
      0000008AH   SFRSYM    DATA     BYTE      DAC1H
      00000090H.4 SFRSYM    DATA     BIT       BSP_LED_G
      00000088H.2 SFRSYM    DATA     BIT       DACGCF0_D1AMEN
      0000008CH   SFRSYM    DATA     BYTE      DAC2H
      0000008EH   SFRSYM    DATA     BYTE      DAC3H
      00000088H.6 SFRSYM    DATA     BIT       DACGCF0_D3AMEN
      000000CAH   SFRSYM    DATA     WORD      TMR2RL
      00000084H   SFRSYM    DATA     BYTE      DAC0L
      000000BDH   SFRSYM    DATA     BYTE      ADC0L
      00000092H   SFRSYM    DATA     WORD      TMR3RL
      00000089H   SFRSYM    DATA     BYTE      DAC1L
      000000A2H   SFRSYM    DATA     WORD      TMR4RL
      000000D8H   SFRSYM    DATA     BYTE      PCA0CN0
      0000008BH   SFRSYM    DATA     BYTE      DAC2L
      000000E0H   SFRSYM    DATA     BYTE      ACC
      000000D2H   SFRSYM    DATA     WORD      TMR5RL
      000000D9H   SFRSYM    DATA     BYTE      UART0PCF
      0000008DH   SFRSYM    DATA     BYTE      DAC3L
      000000FBH   SFRSYM    DATA     WORD      PCA0CP0
      000000DAH   SFRSYM    DATA     BYTE      UART1PCF
      000000E9H   SFRSYM    DATA     WORD      PCA0CP1
      00000088H   SFRSYM    DATA     BYTE      DACGCF0
      000000EBH   SFRSYM    DATA     WORD      PCA0CP2
      000000BCH   SFRSYM    DATA     BYTE      I2C0DIN
      00000098H   SFRSYM    DATA     BYTE      DACGCF1
      000000CEH   SFRSYM    DATA     BYTE      CRC0CN0
      000000F4H   SFRSYM    DATA     WORD      PCA0CP3
      0000008CH   SFRSYM    DATA     BYTE      TH0
      000000A2H   SFRSYM    DATA     BYTE      DACGCF2
      00000086H   SFRSYM    DATA     BYTE      CRC0CN1
      000000B8H.4 SFRSYM    DATA     BIT       IP_PS0
      00000084H   SFRSYM    DATA     WORD      PCA0CP4
      000000FAH   SFRSYM    DATA     BYTE      UART1FCT
      0000008DH   SFRSYM    DATA     BYTE      TH1
      000000FAH   SFRSYM    DATA     BYTE      PCA0H
      000000F5H   SFRSYM    DATA     BYTE      I2C0FCT
      00000090H.6 SFRSYM    DATA     BIT       BSP_LED_R
LX51 LINKER/LOCATER V4.66.30.0                                                        05/06/2017  23:10:53  PAGE 37


      000000B8H.1 SFRSYM    DATA     BIT       IP_PT0
      000000DDH   SFRSYM    DATA     WORD      PCA0CP5
      000000C7H   SFRSYM    DATA     BYTE      CLIE0
      000000B8H.3 SFRSYM    DATA     BIT       IP_PT1
      00000088H.3 SFRSYM    DATA     BIT       DACGCF0_D01REFSL
      000000B5H   SFRSYM    DATA     WORD      ADC0ASA
      000000E8H   SFRSYM    DATA     BYTE      CLIF0
      000000C0H.2 SFRSYM    DATA     BIT       SMB0CN0_ARBLOST
      000000B8H.5 SFRSYM    DATA     BIT       IP_PT2
      0000008AH   SFRSYM    DATA     BYTE      TL0
      000000D0H.5 SFRSYM    DATA     BIT       PSW_F0
      000000A8H.6 SFRSYM    DATA     BIT       IE_ESPI0
      0000008BH   SFRSYM    DATA     BYTE      TL1
      000000F9H   SFRSYM    DATA     BYTE      PCA0L
      000000C0H   SFRSYM    DATA     BIT       SMB0CN0_SI
      000000D0H.1 SFRSYM    DATA     BIT       PSW_F1
      00000080H   SFRSYM    DATA     BIT       P0_B0
      000000B8H   SFRSYM    DATA     BIT       IP_PX0
      00000090H   SFRSYM    DATA     BIT       P1_B0
      00000080H.1 SFRSYM    DATA     BIT       P0_B1
      000000B8H.2 SFRSYM    DATA     BIT       IP_PX1
      00000088H.7 SFRSYM    DATA     BIT       DACGCF0_D23REFSL
      0000009EH   SFRSYM    DATA     BYTE      UART1LIN
      0000009BH   SFRSYM    DATA     BYTE      CMP0CN0
      000000C6H   SFRSYM    DATA     BYTE      CLEN0
      00000088H.1 SFRSYM    DATA     BIT       TCON_IE0
      000000A0H   SFRSYM    DATA     BIT       P2_B0
      00000090H.1 SFRSYM    DATA     BIT       P1_B1
      00000080H.2 SFRSYM    DATA     BIT       P0_B2
      000000BFH   SFRSYM    DATA     BYTE      CMP1CN0
      00000099H   SFRSYM    DATA     BYTE      CMP0CN1
      00000088H.3 SFRSYM    DATA     BIT       TCON_IE1
      000000B0H   SFRSYM    DATA     BIT       P3_B0
      000000A0H.1 SFRSYM    DATA     BIT       P2_B1
      00000090H.2 SFRSYM    DATA     BIT       P1_B2
      00000080H.3 SFRSYM    DATA     BIT       P0_B3
      000000C0H   SFRSYM    DATA     BYTE      SMB0CN0
      000000ACH   SFRSYM    DATA     BYTE      CMP1CN1
      000000B0H.1 SFRSYM    DATA     BIT       P3_B1
      000000A0H.2 SFRSYM    DATA     BIT       P2_B2
      00000090H.3 SFRSYM    DATA     BIT       P1_B3
      00000080H.4 SFRSYM    DATA     BIT       P0_B4
      000000B0H.2 SFRSYM    DATA     BIT       P3_B2
      000000A0H.3 SFRSYM    DATA     BIT       P2_B3
      00000090H.4 SFRSYM    DATA     BIT       P1_B4
      00000080H.5 SFRSYM    DATA     BIT       P0_B5
      00000098H   SFRSYM    DATA     BIT       DACGCF1_D0UDIS
      000000D8H.1 SFRSYM    DATA     BIT       UART1FCN1_RXTO0
      000000B0H.3 SFRSYM    DATA     BIT       P3_B3
      000000A0H.4 SFRSYM    DATA     BIT       P2_B4
      00000090H.5 SFRSYM    DATA     BIT       P1_B5
      00000080H.6 SFRSYM    DATA     BIT       P0_B6
      00000098H.1 SFRSYM    DATA     BIT       DACGCF1_D1UDIS
      000000EEH   SFRSYM    DATA     BYTE      EIP1H
      000000D8H.2 SFRSYM    DATA     BIT       UART1FCN1_RXTO1
      000000B0H.4 SFRSYM    DATA     BIT       P3_B4
      000000A0H.5 SFRSYM    DATA     BIT       P2_B5
      00000090H.6 SFRSYM    DATA     BIT       P1_B6
      00000080H.7 SFRSYM    DATA     BIT       P0_B7
      00000098H.2 SFRSYM    DATA     BIT       DACGCF1_D2UDIS
      000000C5H   SFRSYM    DATA     BYTE      SMB0RXLN
      000000F6H   SFRSYM    DATA     BYTE      EIP2H
LX51 LINKER/LOCATER V4.66.30.0                                                        05/06/2017  23:10:53  PAGE 38


      000000A0H.6 SFRSYM    DATA     BIT       P2_B6
      00000090H.7 SFRSYM    DATA     BIT       P1_B7
      00000098H.3 SFRSYM    DATA     BIT       DACGCF1_D3UDIS
      000000B0H.7 SFRSYM    DATA     BIT       P3_B7
      00000083H   SFRSYM    DATA     BYTE      DPH
      000000C4H   SFRSYM    DATA     BYTE      ADC0GTH
      000000C8H.7 SFRSYM    DATA     BIT       TMR2CN0_TF2H
      000000C8H.3 SFRSYM    DATA     BIT       TMR2CN0_T2SPLIT
      000000D0H.6 SFRSYM    DATA     BIT       PSW_AC
      000000F8H   SFRSYM    DATA     BYTE      SPI0CN0
      000000C7H   SFRSYM    DATA     BYTE      HFO0CAL
      00000088H.5 SFRSYM    DATA     BIT       TCON_TF0
      00000098H   SFRSYM    DATA     BIT       SCON0_RI
      000000D6H   SFRSYM    DATA     BYTE      HFO1CAL
      00000082H   SFRSYM    DATA     BYTE      DPL
      00000088H.7 SFRSYM    DATA     BIT       TCON_TF1
      000000C8H   SFRSYM    DATA     BIT       SCON1_RI
      00000099H   SFRSYM    DATA     BYTE      SBUF0
      00000087H   SFRSYM    DATA     BYTE      PCON0
      000000F2H   SFRSYM    DATA     BYTE      IPH
      000000C3H   SFRSYM    DATA     BYTE      ADC0GTL
      00000098H.7 SFRSYM    DATA     BIT       TMR4CN0_TF4H
      00000098H.3 SFRSYM    DATA     BIT       TMR4CN0_T4SPLIT
      000000C8H.6 SFRSYM    DATA     BIT       TMR2CN0_TF2L
      00000098H.1 SFRSYM    DATA     BIT       SCON0_TI
      00000092H   SFRSYM    DATA     BYTE      SBUF1
      000000CDH   SFRSYM    DATA     BYTE      PCON1
      000000C6H   SFRSYM    DATA     BYTE      ADC0LTH
      00000088H   SFRSYM    DATA     BIT       TCON_IT0
      000000C8H.1 SFRSYM    DATA     BIT       SCON1_TI
      000000EFH   SFRSYM    DATA     BYTE      RSTSRC
      000000FDH   SFRSYM    DATA     BYTE      P0MAT
      000000CBH   SFRSYM    DATA     BYTE      CRC0DAT
      000000C0H.7 SFRSYM    DATA     BIT       TMR5CN0_TF5H
      000000C0H.3 SFRSYM    DATA     BIT       TMR5CN0_T5SPLIT
      00000088H.2 SFRSYM    DATA     BIT       TCON_IT1
      000000D7H   SFRSYM    DATA     BYTE      SFRSTACK
      00000098H   SFRSYM    DATA     BYTE      SCON0
      000000F6H   SFRSYM    DATA     BYTE      PRTDRV
      000000EDH   SFRSYM    DATA     BYTE      P1MAT
      000000E8H.3 SFRSYM    DATA     BIT       ADC0CN0_ADWINT
      00000093H   SFRSYM    DATA     BYTE      SMOD1
      000000C8H   SFRSYM    DATA     BYTE      SCON1
      000000FBH   SFRSYM    DATA     BYTE      P2MAT
      00000098H.6 SFRSYM    DATA     BIT       TMR4CN0_TF4L
      000000E8H.4 SFRSYM    DATA     BIT       ADC0CN0_ADBUSY
      000000D6H   SFRSYM    DATA     BYTE      SMB0ADM
      000000C5H   SFRSYM    DATA     BYTE      ADC0LTL
      000000F8H.5 SFRSYM    DATA     BIT       SPI0CN0_MODF
      000000B8H.6 SFRSYM    DATA     BIT       IP_PSPI0
      000000E8H.1 SFRSYM    DATA     BIT       ADC0CN0_ADGN0
      0000009CH   SFRSYM    DATA     BYTE      PCA0CLR
      000000C0H.6 SFRSYM    DATA     BIT       TMR5CN0_TF5L
      000000E8H.2 SFRSYM    DATA     BIT       ADC0CN0_ADGN1
      000000C8H   SFRSYM    DATA     BYTE      TMR2CN0
      00000091H   SFRSYM    DATA     BYTE      TMR3CN0
      000000FDH   SFRSYM    DATA     BYTE      TMR2CN1
      00000098H   SFRSYM    DATA     BYTE      TMR4CN0
      000000FEH   SFRSYM    DATA     BYTE      TMR3CN1
      000000B0H.4 SFRSYM    DATA     BIT       BSP_DISP_EN
      000000C0H   SFRSYM    DATA     BYTE      TMR5CN0
      000000FFH   SFRSYM    DATA     BYTE      TMR4CN1
LX51 LINKER/LOCATER V4.66.30.0                                                        05/06/2017  23:10:53  PAGE 39


      000000D7H   SFRSYM    DATA     BYTE      SMB0ADR
      00000088H.4 SFRSYM    DATA     BIT       TCON_TR0
      000000F1H   SFRSYM    DATA     BYTE      TMR5CN1
      000000C8H.4 SFRSYM    DATA     BIT       TMR2CN0_TF2CEN
      00000088H.6 SFRSYM    DATA     BIT       TCON_TR1
      000000C2H   SFRSYM    DATA     BYTE      SMB0DAT
      000000A0H.6 SFRSYM    DATA     BIT       BSP_DISP_CS
      000000CFH   SFRSYM    DATA     BYTE      TMR2H
      000000A1H   SFRSYM    DATA     BYTE      SPI0CFG
      00000095H   SFRSYM    DATA     BYTE      TMR3H
      000000EFH   SFRSYM    DATA     BYTE      HFOCN
      000000D3H   SFRSYM    DATA     BYTE      CRC0CNT
      000000A5H   SFRSYM    DATA     BYTE      TMR4H
      00000098H.4 SFRSYM    DATA     BIT       TMR4CN0_TF4CEN
      000000D5H   SFRSYM    DATA     BYTE      TMR5H
      000000EFH   SFRSYM    DATA     BYTE      SMB0FCT
      00000096H   SFRSYM    DATA     BYTE      PCA0POL
      000000CEH   SFRSYM    DATA     BYTE      TMR2L
      000000C0H.4 SFRSYM    DATA     BIT       TMR5CN0_TF5CEN
      000000F8H.7 SFRSYM    DATA     BIT       SPI0CN0_SPIF
      00000094H   SFRSYM    DATA     BYTE      TMR3L
      000000A8H.7 SFRSYM    DATA     BIT       IE_EA
      000000A4H   SFRSYM    DATA     BYTE      TMR4L
      000000D4H   SFRSYM    DATA     BYTE      TMR5L
      000000C8H.5 SFRSYM    DATA     BIT       TMR2CN0_TF2LEN
      000000F8H.6 SFRSYM    DATA     BIT       SPI0CN0_WCOL
      000000F8H.2 SFRSYM    DATA     BIT       SPI0CN0_NSSMD0
      000000D0H.7 SFRSYM    DATA     BIT       PSW_CY
      0000009DH   SFRSYM    DATA     BYTE      UART1FCN0
      000000DFH   SFRSYM    DATA     BYTE      SPI0PCF
      000000A3H   SFRSYM    DATA     BYTE      SPI0DAT
      000000ADH   SFRSYM    DATA     BYTE      I2C0FCN0
      000000F8H.3 SFRSYM    DATA     BIT       SPI0CN0_NSSMD1
      000000BDH   SFRSYM    DATA     WORD      ADC0
      000000D8H   SFRSYM    DATA     BYTE      UART1FCN1
      000000ABH   SFRSYM    DATA     BYTE      I2C0FCN1
      000000E8H   SFRSYM    DATA     BIT       CLIF0_C0FIF
      00000098H.5 SFRSYM    DATA     BIT       TMR4CN0_TF4LEN
      000000E8H.2 SFRSYM    DATA     BIT       CLIF0_C1FIF
      000000D0H   SFRSYM    DATA     BYTE      PSW
      000000F7H   SFRSYM    DATA     BYTE      PCA0PWM
      000000E8H.4 SFRSYM    DATA     BIT       CLIF0_C2FIF
      000000F7H   SFRSYM    DATA     BYTE      SPI0FCT
      000000B6H   SFRSYM    DATA     BYTE      REVID
      000000C0H.5 SFRSYM    DATA     BIT       TMR5CN0_TF5LEN
      000000E8H.6 SFRSYM    DATA     BIT       CLIF0_C3FIF
      000000B7H   SFRSYM    DATA     BYTE      FLKEY
      01002E15H   SYMBOL    CONST    ---       thinfont_bits
      00000007H   SYMBOL    DATA     BYTE      len

      01002D6EH   BLOCK     CODE     ---       LVL=0
      00000006H   SYMBOL    DATA     ---       line
      01002D6EH   BLOCK     CODE     NEAR LAB  LVL=1
      00000005H   SYMBOL    DATA     BYTE      i
      ---         BLOCKEND  ---      ---       LVL=1
      01002D6EH   LINE      CODE     ---       #69
      01002D6EH   LINE      CODE     ---       #71
      01002D6EH   LINE      CODE     ---       #74
      01002D70H   LINE      CODE     ---       #75
      01002D70H   LINE      CODE     ---       #76
      01002D7AH   LINE      CODE     ---       #77
      01002D7FH   LINE      CODE     ---       #78
LX51 LINKER/LOCATER V4.66.30.0                                                        05/06/2017  23:10:53  PAGE 40


      ---         BLOCKEND  ---      ---       LVL=0
      00000082H   SYMBOL    DATA     ---       line
      00000005H   SYMBOL    DATA     BYTE      posx
      00000005H   SYMBOL    DATA     BYTE      xstart
      00000003H   SYMBOL    DATA     BYTE      xstop
      00000004H   SYMBOL    DATA     BYTE      x
      00000007H   SYMBOL    DATA     BYTE      swap

      01002699H   BLOCK     CODE     ---       LVL=0
      020000A1H   SYMBOL    XDATA    ---       line
      020000A3H   SYMBOL    XDATA    BYTE      posx
      020000A4H   SYMBOL    XDATA    BYTE      posy
      020000A5H   SYMBOL    XDATA    ---       str
      010026A7H   BLOCK     CODE     NEAR LAB  LVL=1
      020000A8H   SYMBOL    XDATA    CHAR      c
      00000005H   SYMBOL    DATA     BYTE      font_byte
      020000A9H   SYMBOL    XDATA    ---       line16
      ---         BLOCKEND  ---      ---       LVL=1
      01002699H   LINE      CODE     ---       #179
      010026A7H   LINE      CODE     ---       #184
      010026A7H   LINE      CODE     ---       #194
      010026BAH   LINE      CODE     ---       #195
      010026BAH   LINE      CODE     ---       #196
      010026BEH   LINE      CODE     ---       #199
      010026CDH   LINE      CODE     ---       #200
      010026CDH   LINE      CODE     ---       #201
      010026D3H   LINE      CODE     ---       #202
      010026D3H   LINE      CODE     ---       #205
      010026DCH   LINE      CODE     ---       #206
      010026DCH   LINE      CODE     ---       #207
      010026DCH   LINE      CODE     ---       #208
      010026DCH   LINE      CODE     ---       #209
      010026DFH   LINE      CODE     ---       #210
      010026DFH   LINE      CODE     ---       #212
      01002707H   LINE      CODE     ---       #215
      01002726H   LINE      CODE     ---       #231
      01002756H   LINE      CODE     ---       #232
      01002785H   LINE      CODE     ---       #235
      0100278FH   LINE      CODE     ---       #236
      01002796H   LINE      CODE     ---       #237
      01002799H   LINE      CODE     ---       #238
      ---         BLOCKEND  ---      ---       LVL=0
      00000006H   SYMBOL    DATA     ---       line
      00000005H   SYMBOL    DATA     BYTE      posx
      00000003H   SYMBOL    DATA     BYTE      enlarged_font_byte
      00000001H   SYMBOL    DATA     BYTE      posx
      00000005H   SYMBOL    DATA     BYTE      i
      00000001H   SYMBOL    DATA     BYTE      posx
      00000005H   SYMBOL    DATA     BYTE      i

      ---         MODULE    ---      ---       RETARGETIO
      01002E01H   PUBLIC    CODE     ---       _putchar
      0100002EH   PUBLIC    CODE     ---       _getkey

      0100002EH   BLOCK     CODE     ---       LVL=0
      0100002EH   LINE      CODE     ---       #10
      0100002EH   LINE      CODE     ---       #11
      01000031H   LINE      CODE     ---       #12
      ---         BLOCKEND  ---      ---       LVL=0

      01002E01H   BLOCK     CODE     ---       LVL=0
      00000007H   SYMBOL    DATA     CHAR      c
LX51 LINKER/LOCATER V4.66.30.0                                                        05/06/2017  23:10:53  PAGE 41


      01002E01H   LINE      CODE     ---       #14
      01002E01H   LINE      CODE     ---       #15
      01002E01H   LINE      CODE     ---       #16
      01002E04H   LINE      CODE     ---       #17
      ---         BLOCKEND  ---      ---       LVL=0

      ---         MODULE    ---      ---       RETARGETSERIAL
      01000076H   PUBLIC    CODE     ---       _RETARGET_WriteChar
      01002DEBH   PUBLIC    CODE     ---       RETARGET_ReadChar
      00000080H   SFRSYM    DATA     BYTE      P0
      00000090H   SFRSYM    DATA     BYTE      P1
      000000A0H   SFRSYM    DATA     BYTE      P2
      000000B0H   SFRSYM    DATA     BYTE      P3
      000000B0H.4 SFRSYM    DATA     BIT       T0
      000000D0H.6 SFRSYM    DATA     BIT       AC
      000000B0H.5 SFRSYM    DATA     BIT       T1
      000000A8H.7 SFRSYM    DATA     BIT       EA
      000000A8H   SFRSYM    DATA     BYTE      IE
      000000B0H.7 SFRSYM    DATA     BIT       RD
      000000A8H.4 SFRSYM    DATA     BIT       ES
      000000B8H   SFRSYM    DATA     BYTE      IP
      00000098H   SFRSYM    DATA     BIT       RI
      000000B0H.2 SFRSYM    DATA     BIT       INT0
      000000D0H.7 SFRSYM    DATA     BIT       CY
      00000098H.1 SFRSYM    DATA     BIT       TI
      000000B0H.3 SFRSYM    DATA     BIT       INT1
      000000B8H.4 SFRSYM    DATA     BIT       PS
      00000081H   SFRSYM    DATA     BYTE      SP
      000000D0H.2 SFRSYM    DATA     BIT       OV
      000000B0H.6 SFRSYM    DATA     BIT       WR
      00000099H   SFRSYM    DATA     BYTE      SBUF
      00000087H   SFRSYM    DATA     BYTE      PCON
      00000098H   SFRSYM    DATA     BYTE      SCON
      00000089H   SFRSYM    DATA     BYTE      TMOD
      00000088H   SFRSYM    DATA     BYTE      TCON
      00000088H.1 SFRSYM    DATA     BIT       IE0
      00000088H.3 SFRSYM    DATA     BIT       IE1
      000000F0H   SFRSYM    DATA     BYTE      B
      000000E0H   SFRSYM    DATA     BYTE      ACC
      000000A8H.1 SFRSYM    DATA     BIT       ET0
      000000A8H.3 SFRSYM    DATA     BIT       ET1
      00000088H.5 SFRSYM    DATA     BIT       TF0
      00000088H.7 SFRSYM    DATA     BIT       TF1
      00000098H.2 SFRSYM    DATA     BIT       RB8
      0000008CH   SFRSYM    DATA     BYTE      TH0
      000000A8H   SFRSYM    DATA     BIT       EX0
      00000088H   SFRSYM    DATA     BIT       IT0
      0000008DH   SFRSYM    DATA     BYTE      TH1
      00000098H.3 SFRSYM    DATA     BIT       TB8
      000000A8H.2 SFRSYM    DATA     BIT       EX1
      00000088H.2 SFRSYM    DATA     BIT       IT1
      000000D0H   SFRSYM    DATA     BIT       P
      00000098H.7 SFRSYM    DATA     BIT       SM0
      0000008AH   SFRSYM    DATA     BYTE      TL0
      00000098H.6 SFRSYM    DATA     BIT       SM1
      0000008BH   SFRSYM    DATA     BYTE      TL1
      00000098H.5 SFRSYM    DATA     BIT       SM2
      000000B8H.1 SFRSYM    DATA     BIT       PT0
      000000B8H.3 SFRSYM    DATA     BIT       PT1
      000000D0H.3 SFRSYM    DATA     BIT       RS0
      00000088H.4 SFRSYM    DATA     BIT       TR0
      000000D0H.4 SFRSYM    DATA     BIT       RS1
LX51 LINKER/LOCATER V4.66.30.0                                                        05/06/2017  23:10:53  PAGE 42


      00000088H.6 SFRSYM    DATA     BIT       TR1
      000000B8H   SFRSYM    DATA     BIT       PX0
      000000B8H.2 SFRSYM    DATA     BIT       PX1
      00000083H   SFRSYM    DATA     BYTE      DPH
      00000082H   SFRSYM    DATA     BYTE      DPL
      00000098H.4 SFRSYM    DATA     BIT       REN
      000000B0H   SFRSYM    DATA     BIT       RXD
      000000B0H.1 SFRSYM    DATA     BIT       TXD
      000000D0H.5 SFRSYM    DATA     BIT       F0
      000000D0H   SFRSYM    DATA     BYTE      PSW

      01002DEBH   BLOCK     CODE     ---       LVL=0
      01002DEBH   BLOCK     CODE     NEAR LAB  LVL=1
      00000007H   SYMBOL    DATA     CHAR      c
      ---         BLOCKEND  ---      ---       LVL=1
      01002DEBH   LINE      CODE     ---       #25
      01002DEBH   LINE      CODE     ---       #28
      01002DEEH   LINE      CODE     ---       #29
      01002DF0H   LINE      CODE     ---       #30
      01002DF2H   LINE      CODE     ---       #31
      01002DF2H   LINE      CODE     ---       #32
      ---         BLOCKEND  ---      ---       LVL=0

      01000076H   BLOCK     CODE     ---       LVL=0
      00000007H   SYMBOL    DATA     CHAR      c
      01000076H   LINE      CODE     ---       #34
      01000076H   LINE      CODE     ---       #35
      0100007AH   LINE      CODE     ---       #36
      0100007DH   LINE      CODE     ---       #37
      0100007FH   LINE      CODE     ---       #38
      01000082H   LINE      CODE     ---       #39
      01000082H   LINE      CODE     ---       #40
      01000085H   LINE      CODE     ---       #41
      01000087H   LINE      CODE     ---       #42
      01000089H   LINE      CODE     ---       #43
      ---         BLOCKEND  ---      ---       LVL=0

      ---         MODULE    ---      ---       SPI
      010029B4H   PUBLIC    CODE     ---       TIMER2_ISR
      01002D07H   PUBLIC    CODE     ---       SPI0_transferCompleteCb
      01002B35H   PUBLIC    CODE     ---       _SPI_StartTransfer
      000000A2H   SFRSYM    DATA     BYTE      SPI0CKR
      00000080H   SFRSYM    DATA     BYTE      P0
      000000C8H.6 SFRSYM    DATA     BIT       SCON1_PERR
      000000D0H.2 SFRSYM    DATA     BIT       PSW_OV
      00000086H   SFRSYM    DATA     BYTE      XOSC0CN
      00000090H   SFRSYM    DATA     BYTE      P1
      000000F8H.1 SFRSYM    DATA     BIT       SPI0CN0_TXNF
      00000097H   SFRSYM    DATA     BYTE      WDTCN
      000000A0H   SFRSYM    DATA     BYTE      P2
      000000B0H   SFRSYM    DATA     BYTE      P3
      000000C0H.7 SFRSYM    DATA     BIT       SMB0CN0_MASTER
      000000F9H   SFRSYM    DATA     WORD      PCA0
      000000E6H   SFRSYM    DATA     BYTE      EIE1
      000000C0H.1 SFRSYM    DATA     BIT       SMB0CN0_ACK
      000000E8H.1 SFRSYM    DATA     BIT       CLIF0_C0RIF
      000000F3H   SFRSYM    DATA     BYTE      EIE2
      000000E8H.3 SFRSYM    DATA     BIT       CLIF0_C1RIF
      000000E8H.5 SFRSYM    DATA     BIT       CLIF0_C2RIF
      0000008FH   SFRSYM    DATA     BYTE      PSCTL
      00000080H.2 SFRSYM    DATA     BIT       BSP_PB0
      000000E8H.7 SFRSYM    DATA     BIT       CLIF0_C3RIF
LX51 LINKER/LOCATER V4.66.30.0                                                        05/06/2017  23:10:53  PAGE 43


      000000E4H   SFRSYM    DATA     BYTE      IT01CF
      00000080H.3 SFRSYM    DATA     BIT       BSP_PB1
      000000C0H.6 SFRSYM    DATA     BIT       SMB0CN0_TXMODE
      000000ADH   SFRSYM    DATA     BYTE      DERIVID
      000000A7H   SFRSYM    DATA     BYTE      SFRPAGE
      000000A4H   SFRSYM    DATA     BYTE      P0MDOUT
      000000A5H   SFRSYM    DATA     BYTE      P1MDOUT
      000000E8H.5 SFRSYM    DATA     BIT       ADC0CN0_ADINT
      000000CBH   SFRSYM    DATA     BYTE      TMR2RLH
      000000A6H   SFRSYM    DATA     BYTE      P2MDOUT
      000000A8H   SFRSYM    DATA     BYTE      IE
      00000093H   SFRSYM    DATA     BYTE      TMR3RLH
      0000009CH   SFRSYM    DATA     BYTE      P3MDOUT
      000000A3H   SFRSYM    DATA     BYTE      TMR4RLH
      000000BBH   SFRSYM    DATA     BYTE      EIP1
      000000D3H   SFRSYM    DATA     BYTE      TMR5RLH
      000000EDH   SFRSYM    DATA     BYTE      EIP2
      00000098H.2 SFRSYM    DATA     BIT       SCON0_RB8
      000000CAH   SFRSYM    DATA     BYTE      TMR2RLL
      000000FCH   SFRSYM    DATA     BYTE      PCA0CPH0
      00000092H   SFRSYM    DATA     BYTE      TMR3RLL
      000000EAH   SFRSYM    DATA     BYTE      PCA0CPH1
      00000098H.3 SFRSYM    DATA     BIT       SCON0_TB8
      000000F0H   SFRSYM    DATA     BIT       B_B0
      00000082H   SFRSYM    DATA     WORD      DP
      000000A2H   SFRSYM    DATA     BYTE      TMR4RLL
      000000ECH   SFRSYM    DATA     BYTE      PCA0CPH2
      000000F0H.1 SFRSYM    DATA     BIT       B_B1
      000000C3H   SFRSYM    DATA     WORD      ADC0GT
      000000D2H   SFRSYM    DATA     BYTE      TMR5RLL
      000000F5H   SFRSYM    DATA     BYTE      PCA0CPH3
      000000BDH   SFRSYM    DATA     BYTE      I2C0SLAD
      000000D8H.3 SFRSYM    DATA     BIT       UART1FCN1_RFRQ
      000000F0H.2 SFRSYM    DATA     BIT       B_B2
      000000BCH   SFRSYM    DATA     BYTE      SFRPGCN
      000000FBH   SFRSYM    DATA     BYTE      PCA0CPL0
      00000085H   SFRSYM    DATA     BYTE      PCA0CPH4
      000000F0H.3 SFRSYM    DATA     BIT       B_B3
      000000D9H   SFRSYM    DATA     BYTE      PCA0MD
      000000DAH   SFRSYM    DATA     BYTE      PCA0CPM0
      000000E9H   SFRSYM    DATA     BYTE      PCA0CPL1
      000000DEH   SFRSYM    DATA     BYTE      PCA0CPH5
      000000D8H.7 SFRSYM    DATA     BIT       UART1FCN1_TFRQ
      000000F0H.4 SFRSYM    DATA     BIT       B_B4
      000000DBH   SFRSYM    DATA     BYTE      PCA0CPM1
      000000EBH   SFRSYM    DATA     BYTE      PCA0CPL2
      000000A1H   SFRSYM    DATA     BYTE      ADC0ASCF
      000000B6H   SFRSYM    DATA     BYTE      ADC0ASAH
      000000F0H.5 SFRSYM    DATA     BIT       B_B5
      000000E8H.6 SFRSYM    DATA     BIT       ADC0CN0_IPOEN
      000000E8H   SFRSYM    DATA     BIT       ADC0CN0_TEMPE
      000000DCH   SFRSYM    DATA     BYTE      PCA0CPM2
      000000F4H   SFRSYM    DATA     BYTE      PCA0CPL3
      000000B8H   SFRSYM    DATA     BYTE      IP
      000000F0H.6 SFRSYM    DATA     BIT       B_B6
      000000C5H   SFRSYM    DATA     WORD      ADC0LT
      000000AEH   SFRSYM    DATA     BYTE      PCA0CPM3
      00000084H   SFRSYM    DATA     BYTE      PCA0CPL4
      000000D8H.6 SFRSYM    DATA     BIT       UART1FCN1_TXNF
      00000098H.5 SFRSYM    DATA     BIT       SCON0_MCE
      000000F0H.7 SFRSYM    DATA     BIT       B_B7
      000000AFH   SFRSYM    DATA     BYTE      PCA0CPM4
LX51 LINKER/LOCATER V4.66.30.0                                                        05/06/2017  23:10:53  PAGE 44


      000000DDH   SFRSYM    DATA     BYTE      PCA0CPL5
      000000C3H   SFRSYM    DATA     BYTE      SMB0FCN0
      000000CCH   SFRSYM    DATA     BYTE      PCA0CPM5
      000000B5H   SFRSYM    DATA     BYTE      ADC0ASAL
      000000E1H   SFRSYM    DATA     BYTE      XBR0
      000000C4H   SFRSYM    DATA     BYTE      SMB0FCN1
      000000C1H   SFRSYM    DATA     BYTE      SMB0CF
      000000E2H   SFRSYM    DATA     BYTE      XBR1
      000000C1H   SFRSYM    DATA     BYTE      PFE0CN
      000000E7H   SFRSYM    DATA     BYTE      EMI0CN
      000000C0H.5 SFRSYM    DATA     BIT       SMB0CN0_STA
      000000E3H   SFRSYM    DATA     BYTE      XBR2
      000000B1H   SFRSYM    DATA     BYTE      CLU0CF
      000000BBH   SFRSYM    DATA     BYTE      ADC0MX
      000000E0H   SFRSYM    DATA     BIT       ACC_ACC0
      000000D1H   SFRSYM    DATA     BYTE      REF0CN
      000000B3H   SFRSYM    DATA     BYTE      CLU1CF
      0000008EH   SFRSYM    DATA     BYTE      CKCON0
      000000E0H.1 SFRSYM    DATA     BIT       ACC_ACC1
      000000C9H   SFRSYM    DATA     BYTE      REG0CN
      000000CAH   SFRSYM    DATA     BYTE      CRC0IN
      000000B6H   SFRSYM    DATA     BYTE      CLU2CF
      000000A6H   SFRSYM    DATA     BYTE      CKCON1
      000000C8H.2 SFRSYM    DATA     BIT       TMR2CN0_TR2
      000000E0H.2 SFRSYM    DATA     BIT       ACC_ACC2
      000000BFH   SFRSYM    DATA     BYTE      CLU3CF
      000000E0H.3 SFRSYM    DATA     BIT       ACC_ACC3
      00000081H   SFRSYM    DATA     BYTE      SP
      0000009DH   SFRSYM    DATA     BYTE      CMP0MD
      000000E0H.4 SFRSYM    DATA     BIT       ACC_ACC4
      000000B1H   SFRSYM    DATA     BYTE      LFO0CN
      000000ABH   SFRSYM    DATA     BYTE      CMP1MD
      000000D8H   SFRSYM    DATA     BIT       PCA0CN0_CCF0
      000000E0H.5 SFRSYM    DATA     BIT       ACC_ACC5
      00000098H.2 SFRSYM    DATA     BIT       TMR4CN0_TR4
      000000D8H.1 SFRSYM    DATA     BIT       PCA0CN0_CCF1
      000000E0H.6 SFRSYM    DATA     BIT       ACC_ACC6
      000000CEH   SFRSYM    DATA     WORD      TMR2
      0000009AH   SFRSYM    DATA     BYTE      SPI0FCN0
      000000C7H   SFRSYM    DATA     BYTE      ADC0ASCT
      000000D8H.2 SFRSYM    DATA     BIT       PCA0CN0_CCF2
      000000E0H.7 SFRSYM    DATA     BIT       ACC_ACC7
      00000094H   SFRSYM    DATA     WORD      TMR3
      0000009BH   SFRSYM    DATA     BYTE      SPI0FCN1
      000000C0H.2 SFRSYM    DATA     BIT       TMR5CN0_TR5
      000000D8H.3 SFRSYM    DATA     BIT       PCA0CN0_CCF3
      000000A4H   SFRSYM    DATA     WORD      TMR4
      00000094H   SFRSYM    DATA     BYTE      SBCON1
      000000D8H.4 SFRSYM    DATA     BIT       PCA0CN0_CCF4
      000000D4H   SFRSYM    DATA     WORD      TMR5
      000000C0H.3 SFRSYM    DATA     BIT       SMB0CN0_ACKRQ
      000000D8H.5 SFRSYM    DATA     BIT       PCA0CN0_CCF5
      000000FFH   SFRSYM    DATA     BYTE      VDM0CN
      000000F1H   SFRSYM    DATA     BYTE      P0MDIN
      000000AFH   SFRSYM    DATA     BYTE      CLU0FN
      00000098H.4 SFRSYM    DATA     BIT       SCON0_REN
      000000ACH   SFRSYM    DATA     BYTE      SMB0TC
      000000F2H   SFRSYM    DATA     BYTE      P1MDIN
      000000B2H   SFRSYM    DATA     BYTE      CLU1FN
      000000C8H.4 SFRSYM    DATA     BIT       SCON1_REN
      000000F3H   SFRSYM    DATA     BYTE      P2MDIN
      000000B5H   SFRSYM    DATA     BYTE      CLU2FN
LX51 LINKER/LOCATER V4.66.30.0                                                        05/06/2017  23:10:53  PAGE 45


      000000C0H.4 SFRSYM    DATA     BIT       SMB0CN0_STO
      000000F4H   SFRSYM    DATA     BYTE      P3MDIN
      000000B9H   SFRSYM    DATA     BYTE      I2C0STAT
      000000BBH   SFRSYM    DATA     BYTE      I2C0DOUT
      000000BEH   SFRSYM    DATA     BYTE      CLU3FN
      00000096H   SFRSYM    DATA     BYTE      SBRLH1
      000000FEH   SFRSYM    DATA     BYTE      P0MASK
      000000D8H.5 SFRSYM    DATA     BIT       UART1FCN1_TXHOLD
      000000EEH   SFRSYM    DATA     BYTE      P1MASK
      000000FCH   SFRSYM    DATA     BYTE      P2MASK
      000000D0H.3 SFRSYM    DATA     BIT       PSW_RS0
      000000D8H.7 SFRSYM    DATA     BIT       PCA0CN0_CF
      0000009EH   SFRSYM    DATA     BYTE      PCA0CENT
      000000BAH   SFRSYM    DATA     BYTE      I2C0CN0
      000000D2H   SFRSYM    DATA     BYTE      CRC0ST
      000000F8H.4 SFRSYM    DATA     BIT       SPI0CN0_RXOVRN
      000000D0H.4 SFRSYM    DATA     BIT       PSW_RS1
      00000095H   SFRSYM    DATA     BYTE      SBRLL1
      000000C8H.2 SFRSYM    DATA     BIT       SCON1_RBX
      00000091H   SFRSYM    DATA     BYTE      DAC0CF0
      000000BCH   SFRSYM    DATA     BYTE      ADC0CF0
      000000C8H   SFRSYM    DATA     BIT       TMR2CN0_T2XCLK0
      00000093H   SFRSYM    DATA     BYTE      DAC1CF0
      00000092H   SFRSYM    DATA     BYTE      DAC0CF1
      000000B9H   SFRSYM    DATA     BYTE      ADC0CF1
      000000C8H.1 SFRSYM    DATA     BIT       TMR2CN0_T2XCLK1
      000000C8H.3 SFRSYM    DATA     BIT       SCON1_TBX
      000000E8H.7 SFRSYM    DATA     BIT       ADC0CN0_ADEN
      00000089H   SFRSYM    DATA     BYTE      TMOD
      00000088H   SFRSYM    DATA     BYTE      TCON
      00000095H   SFRSYM    DATA     BYTE      DAC2CF0
      00000094H   SFRSYM    DATA     BYTE      DAC1CF1
      000000DFH   SFRSYM    DATA     BYTE      ADC0CF2
      0000009AH   SFRSYM    DATA     BYTE      DAC3CF0
      00000096H   SFRSYM    DATA     BYTE      DAC2CF1
      000000CFH   SFRSYM    DATA     BYTE      CRC0FLIP
      000000D0H   SFRSYM    DATA     BIT       PSW_PARITY
      000000A8H.4 SFRSYM    DATA     BIT       IE_ES0
      0000009CH   SFRSYM    DATA     BYTE      DAC3CF1
      0000009FH   SFRSYM    DATA     BYTE      CMP0MX
      00000098H   SFRSYM    DATA     BIT       TMR4CN0_T4XCLK0
      000000A8H.1 SFRSYM    DATA     BIT       IE_ET0
      000000AAH   SFRSYM    DATA     BYTE      CMP1MX
      00000098H.1 SFRSYM    DATA     BIT       TMR4CN0_T4XCLK1
      000000A8H.3 SFRSYM    DATA     BIT       IE_ET1
      000000D4H   SFRSYM    DATA     BYTE      P0SKIP
      000000D1H   SFRSYM    DATA     BYTE      CLOUT0
      00000090H.7 SFRSYM    DATA     BIT       BSP_JOYSTICK
      000000D8H   SFRSYM    DATA     BIT       UART1FCN1_RIE
      000000C0H   SFRSYM    DATA     BIT       TMR5CN0_T5XCLK0
      000000A8H.5 SFRSYM    DATA     BIT       IE_ET2
      00000088H   SFRSYM    DATA     BIT       DACGCF0_D1SRC0
      000000D5H   SFRSYM    DATA     BYTE      P1SKIP
      000000C0H.1 SFRSYM    DATA     BIT       TMR5CN0_T5XCLK1
      00000088H.1 SFRSYM    DATA     BIT       DACGCF0_D1SRC1
      000000CCH   SFRSYM    DATA     BYTE      P2SKIP
      00000084H   SFRSYM    DATA     BYTE      CLU0MX
      000000E8H   SFRSYM    DATA     BYTE      ADC0CN0
      000000D8H.4 SFRSYM    DATA     BIT       UART1FCN1_TIE
      000000A8H   SFRSYM    DATA     BIT       IE_EX0
      00000088H.4 SFRSYM    DATA     BIT       DACGCF0_D3SRC0
      00000085H   SFRSYM    DATA     BYTE      CLU1MX
LX51 LINKER/LOCATER V4.66.30.0                                                        05/06/2017  23:10:53  PAGE 46


      000000B2H   SFRSYM    DATA     BYTE      ADC0CN1
      000000D8H.6 SFRSYM    DATA     BIT       PCA0CN0_CR
      000000A8H.2 SFRSYM    DATA     BIT       IE_EX1
      00000088H.5 SFRSYM    DATA     BIT       DACGCF0_D3SRC1
      00000091H   SFRSYM    DATA     BYTE      CLU2MX
      000000B3H   SFRSYM    DATA     BYTE      ADC0CN2
      00000090H.5 SFRSYM    DATA     BIT       BSP_LED_B
      000000C8H.7 SFRSYM    DATA     BIT       SCON1_OVR
      000000AAH   SFRSYM    DATA     BYTE      PSTAT0
      000000AEH   SFRSYM    DATA     BYTE      CLU3MX
      000000A0H.2 SFRSYM    DATA     BIT       BSP_BC_EN
      00000098H.7 SFRSYM    DATA     BIT       SCON0_SMODE
      000000B5H   SFRSYM    DATA     BYTE      DEVICEID
      000000A9H   SFRSYM    DATA     BYTE      CLKSEL
      000000F8H   SFRSYM    DATA     BIT       SPI0CN0_SPIEN
      00000085H   SFRSYM    DATA     BYTE      DAC0H
      000000F0H   SFRSYM    DATA     BYTE      B
      000000BEH   SFRSYM    DATA     BYTE      ADC0H
      000000FFH   SFRSYM    DATA     BYTE      I2C0ADM
      0000008AH   SFRSYM    DATA     BYTE      DAC1H
      00000090H.4 SFRSYM    DATA     BIT       BSP_LED_G
      00000088H.2 SFRSYM    DATA     BIT       DACGCF0_D1AMEN
      0000008CH   SFRSYM    DATA     BYTE      DAC2H
      0000008EH   SFRSYM    DATA     BYTE      DAC3H
      00000088H.6 SFRSYM    DATA     BIT       DACGCF0_D3AMEN
      000000CAH   SFRSYM    DATA     WORD      TMR2RL
      00000084H   SFRSYM    DATA     BYTE      DAC0L
      000000BDH   SFRSYM    DATA     BYTE      ADC0L
      00000092H   SFRSYM    DATA     WORD      TMR3RL
      00000089H   SFRSYM    DATA     BYTE      DAC1L
      000000A2H   SFRSYM    DATA     WORD      TMR4RL
      000000D8H   SFRSYM    DATA     BYTE      PCA0CN0
      0000008BH   SFRSYM    DATA     BYTE      DAC2L
      000000E0H   SFRSYM    DATA     BYTE      ACC
      000000D2H   SFRSYM    DATA     WORD      TMR5RL
      000000D9H   SFRSYM    DATA     BYTE      UART0PCF
      0000008DH   SFRSYM    DATA     BYTE      DAC3L
      000000FBH   SFRSYM    DATA     WORD      PCA0CP0
      000000DAH   SFRSYM    DATA     BYTE      UART1PCF
      000000E9H   SFRSYM    DATA     WORD      PCA0CP1
      00000088H   SFRSYM    DATA     BYTE      DACGCF0
      000000EBH   SFRSYM    DATA     WORD      PCA0CP2
      000000BCH   SFRSYM    DATA     BYTE      I2C0DIN
      00000098H   SFRSYM    DATA     BYTE      DACGCF1
      000000CEH   SFRSYM    DATA     BYTE      CRC0CN0
      000000F4H   SFRSYM    DATA     WORD      PCA0CP3
      0000008CH   SFRSYM    DATA     BYTE      TH0
      000000A2H   SFRSYM    DATA     BYTE      DACGCF2
      00000086H   SFRSYM    DATA     BYTE      CRC0CN1
      000000B8H.4 SFRSYM    DATA     BIT       IP_PS0
      00000084H   SFRSYM    DATA     WORD      PCA0CP4
      000000FAH   SFRSYM    DATA     BYTE      UART1FCT
      0000008DH   SFRSYM    DATA     BYTE      TH1
      000000FAH   SFRSYM    DATA     BYTE      PCA0H
      000000F5H   SFRSYM    DATA     BYTE      I2C0FCT
      00000090H.6 SFRSYM    DATA     BIT       BSP_LED_R
      000000B8H.1 SFRSYM    DATA     BIT       IP_PT0
      000000DDH   SFRSYM    DATA     WORD      PCA0CP5
      000000C7H   SFRSYM    DATA     BYTE      CLIE0
      000000B8H.3 SFRSYM    DATA     BIT       IP_PT1
      00000088H.3 SFRSYM    DATA     BIT       DACGCF0_D01REFSL
      000000B5H   SFRSYM    DATA     WORD      ADC0ASA
LX51 LINKER/LOCATER V4.66.30.0                                                        05/06/2017  23:10:53  PAGE 47


      000000E8H   SFRSYM    DATA     BYTE      CLIF0
      000000C0H.2 SFRSYM    DATA     BIT       SMB0CN0_ARBLOST
      000000B8H.5 SFRSYM    DATA     BIT       IP_PT2
      0000008AH   SFRSYM    DATA     BYTE      TL0
      000000D0H.5 SFRSYM    DATA     BIT       PSW_F0
      000000A8H.6 SFRSYM    DATA     BIT       IE_ESPI0
      0000008BH   SFRSYM    DATA     BYTE      TL1
      000000F9H   SFRSYM    DATA     BYTE      PCA0L
      000000C0H   SFRSYM    DATA     BIT       SMB0CN0_SI
      000000D0H.1 SFRSYM    DATA     BIT       PSW_F1
      00000080H   SFRSYM    DATA     BIT       P0_B0
      000000B8H   SFRSYM    DATA     BIT       IP_PX0
      00000090H   SFRSYM    DATA     BIT       P1_B0
      00000080H.1 SFRSYM    DATA     BIT       P0_B1
      000000B8H.2 SFRSYM    DATA     BIT       IP_PX1
      00000088H.7 SFRSYM    DATA     BIT       DACGCF0_D23REFSL
      0000009EH   SFRSYM    DATA     BYTE      UART1LIN
      0000009BH   SFRSYM    DATA     BYTE      CMP0CN0
      000000C6H   SFRSYM    DATA     BYTE      CLEN0
      00000088H.1 SFRSYM    DATA     BIT       TCON_IE0
      000000A0H   SFRSYM    DATA     BIT       P2_B0
      00000090H.1 SFRSYM    DATA     BIT       P1_B1
      00000080H.2 SFRSYM    DATA     BIT       P0_B2
      000000BFH   SFRSYM    DATA     BYTE      CMP1CN0
      00000099H   SFRSYM    DATA     BYTE      CMP0CN1
      00000088H.3 SFRSYM    DATA     BIT       TCON_IE1
      000000B0H   SFRSYM    DATA     BIT       P3_B0
      000000A0H.1 SFRSYM    DATA     BIT       P2_B1
      00000090H.2 SFRSYM    DATA     BIT       P1_B2
      00000080H.3 SFRSYM    DATA     BIT       P0_B3
      000000C0H   SFRSYM    DATA     BYTE      SMB0CN0
      000000ACH   SFRSYM    DATA     BYTE      CMP1CN1
      000000B0H.1 SFRSYM    DATA     BIT       P3_B1
      000000A0H.2 SFRSYM    DATA     BIT       P2_B2
      00000090H.3 SFRSYM    DATA     BIT       P1_B3
      00000080H.4 SFRSYM    DATA     BIT       P0_B4
      000000B0H.2 SFRSYM    DATA     BIT       P3_B2
      000000A0H.3 SFRSYM    DATA     BIT       P2_B3
      00000090H.4 SFRSYM    DATA     BIT       P1_B4
      00000080H.5 SFRSYM    DATA     BIT       P0_B5
      00000098H   SFRSYM    DATA     BIT       DACGCF1_D0UDIS
      000000D8H.1 SFRSYM    DATA     BIT       UART1FCN1_RXTO0
      000000B0H.3 SFRSYM    DATA     BIT       P3_B3
      000000A0H.4 SFRSYM    DATA     BIT       P2_B4
      00000090H.5 SFRSYM    DATA     BIT       P1_B5
      00000080H.6 SFRSYM    DATA     BIT       P0_B6
      00000098H.1 SFRSYM    DATA     BIT       DACGCF1_D1UDIS
      000000EEH   SFRSYM    DATA     BYTE      EIP1H
      000000D8H.2 SFRSYM    DATA     BIT       UART1FCN1_RXTO1
      000000B0H.4 SFRSYM    DATA     BIT       P3_B4
      000000A0H.5 SFRSYM    DATA     BIT       P2_B5
      00000090H.6 SFRSYM    DATA     BIT       P1_B6
      00000080H.7 SFRSYM    DATA     BIT       P0_B7
      00000098H.2 SFRSYM    DATA     BIT       DACGCF1_D2UDIS
      000000C5H   SFRSYM    DATA     BYTE      SMB0RXLN
      000000F6H   SFRSYM    DATA     BYTE      EIP2H
      000000A0H.6 SFRSYM    DATA     BIT       P2_B6
      00000090H.7 SFRSYM    DATA     BIT       P1_B7
      00000098H.3 SFRSYM    DATA     BIT       DACGCF1_D3UDIS
      000000B0H.7 SFRSYM    DATA     BIT       P3_B7
      00000083H   SFRSYM    DATA     BYTE      DPH
      000000C4H   SFRSYM    DATA     BYTE      ADC0GTH
LX51 LINKER/LOCATER V4.66.30.0                                                        05/06/2017  23:10:53  PAGE 48


      000000C8H.7 SFRSYM    DATA     BIT       TMR2CN0_TF2H
      000000C8H.3 SFRSYM    DATA     BIT       TMR2CN0_T2SPLIT
      000000D0H.6 SFRSYM    DATA     BIT       PSW_AC
      000000F8H   SFRSYM    DATA     BYTE      SPI0CN0
      000000C7H   SFRSYM    DATA     BYTE      HFO0CAL
      00000088H.5 SFRSYM    DATA     BIT       TCON_TF0
      00000098H   SFRSYM    DATA     BIT       SCON0_RI
      000000D6H   SFRSYM    DATA     BYTE      HFO1CAL
      00000082H   SFRSYM    DATA     BYTE      DPL
      00000088H.7 SFRSYM    DATA     BIT       TCON_TF1
      000000C8H   SFRSYM    DATA     BIT       SCON1_RI
      00000099H   SFRSYM    DATA     BYTE      SBUF0
      00000087H   SFRSYM    DATA     BYTE      PCON0
      000000F2H   SFRSYM    DATA     BYTE      IPH
      000000C3H   SFRSYM    DATA     BYTE      ADC0GTL
      00000098H.7 SFRSYM    DATA     BIT       TMR4CN0_TF4H
      00000098H.3 SFRSYM    DATA     BIT       TMR4CN0_T4SPLIT
      000000C8H.6 SFRSYM    DATA     BIT       TMR2CN0_TF2L
      00000098H.1 SFRSYM    DATA     BIT       SCON0_TI
      00000092H   SFRSYM    DATA     BYTE      SBUF1
      000000CDH   SFRSYM    DATA     BYTE      PCON1
      000000C6H   SFRSYM    DATA     BYTE      ADC0LTH
      00000088H   SFRSYM    DATA     BIT       TCON_IT0
      000000C8H.1 SFRSYM    DATA     BIT       SCON1_TI
      000000EFH   SFRSYM    DATA     BYTE      RSTSRC
      000000FDH   SFRSYM    DATA     BYTE      P0MAT
      000000CBH   SFRSYM    DATA     BYTE      CRC0DAT
      000000C0H.7 SFRSYM    DATA     BIT       TMR5CN0_TF5H
      000000C0H.3 SFRSYM    DATA     BIT       TMR5CN0_T5SPLIT
      00000088H.2 SFRSYM    DATA     BIT       TCON_IT1
      000000D7H   SFRSYM    DATA     BYTE      SFRSTACK
      00000098H   SFRSYM    DATA     BYTE      SCON0
      000000F6H   SFRSYM    DATA     BYTE      PRTDRV
      000000EDH   SFRSYM    DATA     BYTE      P1MAT
      000000E8H.3 SFRSYM    DATA     BIT       ADC0CN0_ADWINT
      00000093H   SFRSYM    DATA     BYTE      SMOD1
      000000C8H   SFRSYM    DATA     BYTE      SCON1
      000000FBH   SFRSYM    DATA     BYTE      P2MAT
      00000098H.6 SFRSYM    DATA     BIT       TMR4CN0_TF4L
      000000E8H.4 SFRSYM    DATA     BIT       ADC0CN0_ADBUSY
      000000D6H   SFRSYM    DATA     BYTE      SMB0ADM
      000000C5H   SFRSYM    DATA     BYTE      ADC0LTL
      000000F8H.5 SFRSYM    DATA     BIT       SPI0CN0_MODF
      000000B8H.6 SFRSYM    DATA     BIT       IP_PSPI0
      000000E8H.1 SFRSYM    DATA     BIT       ADC0CN0_ADGN0
      0000009CH   SFRSYM    DATA     BYTE      PCA0CLR
      000000C0H.6 SFRSYM    DATA     BIT       TMR5CN0_TF5L
      000000E8H.2 SFRSYM    DATA     BIT       ADC0CN0_ADGN1
      000000C8H   SFRSYM    DATA     BYTE      TMR2CN0
      00000091H   SFRSYM    DATA     BYTE      TMR3CN0
      000000FDH   SFRSYM    DATA     BYTE      TMR2CN1
      00000098H   SFRSYM    DATA     BYTE      TMR4CN0
      000000FEH   SFRSYM    DATA     BYTE      TMR3CN1
      000000B0H.4 SFRSYM    DATA     BIT       BSP_DISP_EN
      000000C0H   SFRSYM    DATA     BYTE      TMR5CN0
      000000FFH   SFRSYM    DATA     BYTE      TMR4CN1
      000000D7H   SFRSYM    DATA     BYTE      SMB0ADR
      00000088H.4 SFRSYM    DATA     BIT       TCON_TR0
      000000F1H   SFRSYM    DATA     BYTE      TMR5CN1
      000000C8H.4 SFRSYM    DATA     BIT       TMR2CN0_TF2CEN
      00000088H.6 SFRSYM    DATA     BIT       TCON_TR1
      000000C2H   SFRSYM    DATA     BYTE      SMB0DAT
LX51 LINKER/LOCATER V4.66.30.0                                                        05/06/2017  23:10:53  PAGE 49


      000000A0H.6 SFRSYM    DATA     BIT       BSP_DISP_CS
      000000CFH   SFRSYM    DATA     BYTE      TMR2H
      000000A1H   SFRSYM    DATA     BYTE      SPI0CFG
      00000095H   SFRSYM    DATA     BYTE      TMR3H
      000000EFH   SFRSYM    DATA     BYTE      HFOCN
      000000D3H   SFRSYM    DATA     BYTE      CRC0CNT
      000000A5H   SFRSYM    DATA     BYTE      TMR4H
      00000098H.4 SFRSYM    DATA     BIT       TMR4CN0_TF4CEN
      000000D5H   SFRSYM    DATA     BYTE      TMR5H
      000000EFH   SFRSYM    DATA     BYTE      SMB0FCT
      00000096H   SFRSYM    DATA     BYTE      PCA0POL
      000000CEH   SFRSYM    DATA     BYTE      TMR2L
      000000C0H.4 SFRSYM    DATA     BIT       TMR5CN0_TF5CEN
      000000F8H.7 SFRSYM    DATA     BIT       SPI0CN0_SPIF
      00000094H   SFRSYM    DATA     BYTE      TMR3L
      000000A8H.7 SFRSYM    DATA     BIT       IE_EA
      000000A4H   SFRSYM    DATA     BYTE      TMR4L
      000000D4H   SFRSYM    DATA     BYTE      TMR5L
      000000C8H.5 SFRSYM    DATA     BIT       TMR2CN0_TF2LEN
      000000F8H.6 SFRSYM    DATA     BIT       SPI0CN0_WCOL
      000000F8H.2 SFRSYM    DATA     BIT       SPI0CN0_NSSMD0
      000000D0H.7 SFRSYM    DATA     BIT       PSW_CY
      0000009DH   SFRSYM    DATA     BYTE      UART1FCN0
      000000DFH   SFRSYM    DATA     BYTE      SPI0PCF
      000000A3H   SFRSYM    DATA     BYTE      SPI0DAT
      000000ADH   SFRSYM    DATA     BYTE      I2C0FCN0
      000000F8H.3 SFRSYM    DATA     BIT       SPI0CN0_NSSMD1
      000000BDH   SFRSYM    DATA     WORD      ADC0
      000000D8H   SFRSYM    DATA     BYTE      UART1FCN1
      000000ABH   SFRSYM    DATA     BYTE      I2C0FCN1
      000000E8H   SFRSYM    DATA     BIT       CLIF0_C0FIF
      00000098H.5 SFRSYM    DATA     BIT       TMR4CN0_TF4LEN
      000000E8H.2 SFRSYM    DATA     BIT       CLIF0_C1FIF
      000000D0H   SFRSYM    DATA     BYTE      PSW
      000000F7H   SFRSYM    DATA     BYTE      PCA0PWM
      000000E8H.4 SFRSYM    DATA     BIT       CLIF0_C2FIF
      000000F7H   SFRSYM    DATA     BYTE      SPI0FCT
      000000B6H   SFRSYM    DATA     BYTE      REVID
      000000C0H.5 SFRSYM    DATA     BIT       TMR5CN0_TF5LEN
      000000E8H.6 SFRSYM    DATA     BIT       CLIF0_C3FIF
      000000B7H   SFRSYM    DATA     BYTE      FLKEY
      02000000H   SYMBOL    PDATA    ---       TxBuffer
      020000FBH   SYMBOL    XDATA    BYTE      TransferState
      020000FCH   SYMBOL    XDATA    BYTE      TransferSize

      01002B35H   BLOCK     CODE     ---       LVL=0
      020000B9H   SYMBOL    XDATA    ---       buffer
      00000005H   SYMBOL    DATA     BYTE      size
      01002B40H   BLOCK     CODE     NEAR LAB  LVL=1
      00000007H   SYMBOL    DATA     BYTE      sfrPageSave
      00000007H   SYMBOL    DATA     BYTE      i
      ---         BLOCKEND  ---      ---       LVL=1
      01002B35H   LINE      CODE     ---       #38
      01002B40H   LINE      CODE     ---       #39
      01002B40H   LINE      CODE     ---       #44
      01002B46H   LINE      CODE     ---       #47
      01002B4CH   LINE      CODE     ---       #48
      01002B4FH   LINE      CODE     ---       #50
      01002B56H   LINE      CODE     ---       #51
      01002B56H   LINE      CODE     ---       #52
      01002B70H   LINE      CODE     ---       #53
      01002B73H   LINE      CODE     ---       #55
LX51 LINKER/LOCATER V4.66.30.0                                                        05/06/2017  23:10:53  PAGE 50


      01002B75H   LINE      CODE     ---       #56
      01002B78H   LINE      CODE     ---       #60
      01002B7EH   LINE      CODE     ---       #61
      01002B80H   LINE      CODE     ---       #62
      01002B83H   LINE      CODE     ---       #64
      01002B85H   LINE      CODE     ---       #65
      ---         BLOCKEND  ---      ---       LVL=0

      01002D07H   BLOCK     CODE     ---       LVL=0
      01002D07H   BLOCK     CODE     NEAR LAB  LVL=1
      00000007H   SYMBOL    DATA     BYTE      sfrPageSave
      ---         BLOCKEND  ---      ---       LVL=1
      01002D07H   LINE      CODE     ---       #71
      01002D07H   LINE      CODE     ---       #72
      01002D07H   LINE      CODE     ---       #76
      01002D0DH   LINE      CODE     ---       #78
      01002D0FH   LINE      CODE     ---       #79
      01002D12H   LINE      CODE     ---       #83
      01002D18H   LINE      CODE     ---       #84
      01002D1BH   LINE      CODE     ---       #86
      01002D1DH   LINE      CODE     ---       #87
      ---         BLOCKEND  ---      ---       LVL=0

      010029B4H   BLOCK     CODE     ---       LVL=0
      010029B4H   LINE      CODE     ---       #98
      010029D1H   LINE      CODE     ---       #100
      010029D4H   LINE      CODE     ---       #103
      010029D7H   LINE      CODE     ---       #106
      010029DEH   LINE      CODE     ---       #107
      010029DEH   LINE      CODE     ---       #108
      010029E1H   LINE      CODE     ---       #109
      010029F1H   LINE      CODE     ---       #110
      010029F3H   LINE      CODE     ---       #112
      010029FAH   LINE      CODE     ---       #113
      010029FAH   LINE      CODE     ---       #115
      010029FCH   LINE      CODE     ---       #118
      010029FEH   LINE      CODE     ---       #119
      010029FEH   LINE      CODE     ---       #120
      ---         BLOCKEND  ---      ---       LVL=0

      ---         MODULE    ---      ---       TICK
      01002CB8H   PUBLIC    CODE     ---       TIMER3_ISR
      01002CEFH   PUBLIC    CODE     ---       GetTickCount
      000000A2H   SFRSYM    DATA     BYTE      SPI0CKR
      00000080H   SFRSYM    DATA     BYTE      P0
      000000C8H.6 SFRSYM    DATA     BIT       SCON1_PERR
      000000D0H.2 SFRSYM    DATA     BIT       PSW_OV
      00000086H   SFRSYM    DATA     BYTE      XOSC0CN
      00000090H   SFRSYM    DATA     BYTE      P1
      000000F8H.1 SFRSYM    DATA     BIT       SPI0CN0_TXNF
      00000097H   SFRSYM    DATA     BYTE      WDTCN
      000000A0H   SFRSYM    DATA     BYTE      P2
      000000B0H   SFRSYM    DATA     BYTE      P3
      000000C0H.7 SFRSYM    DATA     BIT       SMB0CN0_MASTER
      000000F9H   SFRSYM    DATA     WORD      PCA0
      000000E6H   SFRSYM    DATA     BYTE      EIE1
      000000C0H.1 SFRSYM    DATA     BIT       SMB0CN0_ACK
      000000E8H.1 SFRSYM    DATA     BIT       CLIF0_C0RIF
      000000F3H   SFRSYM    DATA     BYTE      EIE2
      000000E8H.3 SFRSYM    DATA     BIT       CLIF0_C1RIF
      000000E8H.5 SFRSYM    DATA     BIT       CLIF0_C2RIF
      0000008FH   SFRSYM    DATA     BYTE      PSCTL
LX51 LINKER/LOCATER V4.66.30.0                                                        05/06/2017  23:10:53  PAGE 51


      00000080H.2 SFRSYM    DATA     BIT       BSP_PB0
      000000E8H.7 SFRSYM    DATA     BIT       CLIF0_C3RIF
      000000E4H   SFRSYM    DATA     BYTE      IT01CF
      00000080H.3 SFRSYM    DATA     BIT       BSP_PB1
      000000C0H.6 SFRSYM    DATA     BIT       SMB0CN0_TXMODE
      000000ADH   SFRSYM    DATA     BYTE      DERIVID
      000000A7H   SFRSYM    DATA     BYTE      SFRPAGE
      000000A4H   SFRSYM    DATA     BYTE      P0MDOUT
      000000A5H   SFRSYM    DATA     BYTE      P1MDOUT
      000000E8H.5 SFRSYM    DATA     BIT       ADC0CN0_ADINT
      000000CBH   SFRSYM    DATA     BYTE      TMR2RLH
      000000A6H   SFRSYM    DATA     BYTE      P2MDOUT
      000000A8H   SFRSYM    DATA     BYTE      IE
      00000093H   SFRSYM    DATA     BYTE      TMR3RLH
      0000009CH   SFRSYM    DATA     BYTE      P3MDOUT
      000000A3H   SFRSYM    DATA     BYTE      TMR4RLH
      000000BBH   SFRSYM    DATA     BYTE      EIP1
      000000D3H   SFRSYM    DATA     BYTE      TMR5RLH
      000000EDH   SFRSYM    DATA     BYTE      EIP2
      00000098H.2 SFRSYM    DATA     BIT       SCON0_RB8
      000000CAH   SFRSYM    DATA     BYTE      TMR2RLL
      000000FCH   SFRSYM    DATA     BYTE      PCA0CPH0
      00000092H   SFRSYM    DATA     BYTE      TMR3RLL
      000000EAH   SFRSYM    DATA     BYTE      PCA0CPH1
      00000098H.3 SFRSYM    DATA     BIT       SCON0_TB8
      000000F0H   SFRSYM    DATA     BIT       B_B0
      00000082H   SFRSYM    DATA     WORD      DP
      000000A2H   SFRSYM    DATA     BYTE      TMR4RLL
      000000ECH   SFRSYM    DATA     BYTE      PCA0CPH2
      000000F0H.1 SFRSYM    DATA     BIT       B_B1
      000000C3H   SFRSYM    DATA     WORD      ADC0GT
      000000D2H   SFRSYM    DATA     BYTE      TMR5RLL
      000000F5H   SFRSYM    DATA     BYTE      PCA0CPH3
      000000BDH   SFRSYM    DATA     BYTE      I2C0SLAD
      000000D8H.3 SFRSYM    DATA     BIT       UART1FCN1_RFRQ
      000000F0H.2 SFRSYM    DATA     BIT       B_B2
      000000BCH   SFRSYM    DATA     BYTE      SFRPGCN
      000000FBH   SFRSYM    DATA     BYTE      PCA0CPL0
      00000085H   SFRSYM    DATA     BYTE      PCA0CPH4
      000000F0H.3 SFRSYM    DATA     BIT       B_B3
      000000D9H   SFRSYM    DATA     BYTE      PCA0MD
      000000DAH   SFRSYM    DATA     BYTE      PCA0CPM0
      000000E9H   SFRSYM    DATA     BYTE      PCA0CPL1
      000000DEH   SFRSYM    DATA     BYTE      PCA0CPH5
      000000D8H.7 SFRSYM    DATA     BIT       UART1FCN1_TFRQ
      000000F0H.4 SFRSYM    DATA     BIT       B_B4
      000000DBH   SFRSYM    DATA     BYTE      PCA0CPM1
      000000EBH   SFRSYM    DATA     BYTE      PCA0CPL2
      000000A1H   SFRSYM    DATA     BYTE      ADC0ASCF
      000000B6H   SFRSYM    DATA     BYTE      ADC0ASAH
      000000F0H.5 SFRSYM    DATA     BIT       B_B5
      000000E8H.6 SFRSYM    DATA     BIT       ADC0CN0_IPOEN
      000000E8H   SFRSYM    DATA     BIT       ADC0CN0_TEMPE
      000000DCH   SFRSYM    DATA     BYTE      PCA0CPM2
      000000F4H   SFRSYM    DATA     BYTE      PCA0CPL3
      000000B8H   SFRSYM    DATA     BYTE      IP
      000000F0H.6 SFRSYM    DATA     BIT       B_B6
      000000C5H   SFRSYM    DATA     WORD      ADC0LT
      000000AEH   SFRSYM    DATA     BYTE      PCA0CPM3
      00000084H   SFRSYM    DATA     BYTE      PCA0CPL4
      000000D8H.6 SFRSYM    DATA     BIT       UART1FCN1_TXNF
      00000098H.5 SFRSYM    DATA     BIT       SCON0_MCE
LX51 LINKER/LOCATER V4.66.30.0                                                        05/06/2017  23:10:53  PAGE 52


      000000F0H.7 SFRSYM    DATA     BIT       B_B7
      000000AFH   SFRSYM    DATA     BYTE      PCA0CPM4
      000000DDH   SFRSYM    DATA     BYTE      PCA0CPL5
      000000C3H   SFRSYM    DATA     BYTE      SMB0FCN0
      000000CCH   SFRSYM    DATA     BYTE      PCA0CPM5
      000000B5H   SFRSYM    DATA     BYTE      ADC0ASAL
      000000E1H   SFRSYM    DATA     BYTE      XBR0
      000000C4H   SFRSYM    DATA     BYTE      SMB0FCN1
      000000C1H   SFRSYM    DATA     BYTE      SMB0CF
      000000E2H   SFRSYM    DATA     BYTE      XBR1
      000000C1H   SFRSYM    DATA     BYTE      PFE0CN
      000000E7H   SFRSYM    DATA     BYTE      EMI0CN
      000000C0H.5 SFRSYM    DATA     BIT       SMB0CN0_STA
      000000E3H   SFRSYM    DATA     BYTE      XBR2
      000000B1H   SFRSYM    DATA     BYTE      CLU0CF
      000000BBH   SFRSYM    DATA     BYTE      ADC0MX
      000000E0H   SFRSYM    DATA     BIT       ACC_ACC0
      000000D1H   SFRSYM    DATA     BYTE      REF0CN
      000000B3H   SFRSYM    DATA     BYTE      CLU1CF
      0000008EH   SFRSYM    DATA     BYTE      CKCON0
      000000E0H.1 SFRSYM    DATA     BIT       ACC_ACC1
      000000C9H   SFRSYM    DATA     BYTE      REG0CN
      000000CAH   SFRSYM    DATA     BYTE      CRC0IN
      000000B6H   SFRSYM    DATA     BYTE      CLU2CF
      000000A6H   SFRSYM    DATA     BYTE      CKCON1
      000000C8H.2 SFRSYM    DATA     BIT       TMR2CN0_TR2
      000000E0H.2 SFRSYM    DATA     BIT       ACC_ACC2
      000000BFH   SFRSYM    DATA     BYTE      CLU3CF
      000000E0H.3 SFRSYM    DATA     BIT       ACC_ACC3
      00000081H   SFRSYM    DATA     BYTE      SP
      0000009DH   SFRSYM    DATA     BYTE      CMP0MD
      000000E0H.4 SFRSYM    DATA     BIT       ACC_ACC4
      000000B1H   SFRSYM    DATA     BYTE      LFO0CN
      000000ABH   SFRSYM    DATA     BYTE      CMP1MD
      000000D8H   SFRSYM    DATA     BIT       PCA0CN0_CCF0
      000000E0H.5 SFRSYM    DATA     BIT       ACC_ACC5
      00000098H.2 SFRSYM    DATA     BIT       TMR4CN0_TR4
      000000D8H.1 SFRSYM    DATA     BIT       PCA0CN0_CCF1
      000000E0H.6 SFRSYM    DATA     BIT       ACC_ACC6
      000000CEH   SFRSYM    DATA     WORD      TMR2
      0000009AH   SFRSYM    DATA     BYTE      SPI0FCN0
      000000C7H   SFRSYM    DATA     BYTE      ADC0ASCT
      000000D8H.2 SFRSYM    DATA     BIT       PCA0CN0_CCF2
      000000E0H.7 SFRSYM    DATA     BIT       ACC_ACC7
      00000094H   SFRSYM    DATA     WORD      TMR3
      0000009BH   SFRSYM    DATA     BYTE      SPI0FCN1
      000000C0H.2 SFRSYM    DATA     BIT       TMR5CN0_TR5
      000000D8H.3 SFRSYM    DATA     BIT       PCA0CN0_CCF3
      000000A4H   SFRSYM    DATA     WORD      TMR4
      00000094H   SFRSYM    DATA     BYTE      SBCON1
      000000D8H.4 SFRSYM    DATA     BIT       PCA0CN0_CCF4
      000000D4H   SFRSYM    DATA     WORD      TMR5
      000000C0H.3 SFRSYM    DATA     BIT       SMB0CN0_ACKRQ
      000000D8H.5 SFRSYM    DATA     BIT       PCA0CN0_CCF5
      000000FFH   SFRSYM    DATA     BYTE      VDM0CN
      000000F1H   SFRSYM    DATA     BYTE      P0MDIN
      000000AFH   SFRSYM    DATA     BYTE      CLU0FN
      00000098H.4 SFRSYM    DATA     BIT       SCON0_REN
      000000ACH   SFRSYM    DATA     BYTE      SMB0TC
      000000F2H   SFRSYM    DATA     BYTE      P1MDIN
      000000B2H   SFRSYM    DATA     BYTE      CLU1FN
      000000C8H.4 SFRSYM    DATA     BIT       SCON1_REN
LX51 LINKER/LOCATER V4.66.30.0                                                        05/06/2017  23:10:53  PAGE 53


      000000F3H   SFRSYM    DATA     BYTE      P2MDIN
      000000B5H   SFRSYM    DATA     BYTE      CLU2FN
      000000C0H.4 SFRSYM    DATA     BIT       SMB0CN0_STO
      000000F4H   SFRSYM    DATA     BYTE      P3MDIN
      000000B9H   SFRSYM    DATA     BYTE      I2C0STAT
      000000BBH   SFRSYM    DATA     BYTE      I2C0DOUT
      000000BEH   SFRSYM    DATA     BYTE      CLU3FN
      00000096H   SFRSYM    DATA     BYTE      SBRLH1
      000000FEH   SFRSYM    DATA     BYTE      P0MASK
      000000D8H.5 SFRSYM    DATA     BIT       UART1FCN1_TXHOLD
      000000EEH   SFRSYM    DATA     BYTE      P1MASK
      000000FCH   SFRSYM    DATA     BYTE      P2MASK
      000000D0H.3 SFRSYM    DATA     BIT       PSW_RS0
      000000D8H.7 SFRSYM    DATA     BIT       PCA0CN0_CF
      0000009EH   SFRSYM    DATA     BYTE      PCA0CENT
      000000BAH   SFRSYM    DATA     BYTE      I2C0CN0
      000000D2H   SFRSYM    DATA     BYTE      CRC0ST
      000000F8H.4 SFRSYM    DATA     BIT       SPI0CN0_RXOVRN
      000000D0H.4 SFRSYM    DATA     BIT       PSW_RS1
      00000095H   SFRSYM    DATA     BYTE      SBRLL1
      000000C8H.2 SFRSYM    DATA     BIT       SCON1_RBX
      00000091H   SFRSYM    DATA     BYTE      DAC0CF0
      000000BCH   SFRSYM    DATA     BYTE      ADC0CF0
      000000C8H   SFRSYM    DATA     BIT       TMR2CN0_T2XCLK0
      00000093H   SFRSYM    DATA     BYTE      DAC1CF0
      00000092H   SFRSYM    DATA     BYTE      DAC0CF1
      000000B9H   SFRSYM    DATA     BYTE      ADC0CF1
      000000C8H.1 SFRSYM    DATA     BIT       TMR2CN0_T2XCLK1
      000000C8H.3 SFRSYM    DATA     BIT       SCON1_TBX
      000000E8H.7 SFRSYM    DATA     BIT       ADC0CN0_ADEN
      00000089H   SFRSYM    DATA     BYTE      TMOD
      00000088H   SFRSYM    DATA     BYTE      TCON
      00000095H   SFRSYM    DATA     BYTE      DAC2CF0
      00000094H   SFRSYM    DATA     BYTE      DAC1CF1
      000000DFH   SFRSYM    DATA     BYTE      ADC0CF2
      0000009AH   SFRSYM    DATA     BYTE      DAC3CF0
      00000096H   SFRSYM    DATA     BYTE      DAC2CF1
      000000CFH   SFRSYM    DATA     BYTE      CRC0FLIP
      000000D0H   SFRSYM    DATA     BIT       PSW_PARITY
      000000A8H.4 SFRSYM    DATA     BIT       IE_ES0
      0000009CH   SFRSYM    DATA     BYTE      DAC3CF1
      0000009FH   SFRSYM    DATA     BYTE      CMP0MX
      00000098H   SFRSYM    DATA     BIT       TMR4CN0_T4XCLK0
      000000A8H.1 SFRSYM    DATA     BIT       IE_ET0
      000000AAH   SFRSYM    DATA     BYTE      CMP1MX
      00000098H.1 SFRSYM    DATA     BIT       TMR4CN0_T4XCLK1
      000000A8H.3 SFRSYM    DATA     BIT       IE_ET1
      000000D4H   SFRSYM    DATA     BYTE      P0SKIP
      000000D1H   SFRSYM    DATA     BYTE      CLOUT0
      00000090H.7 SFRSYM    DATA     BIT       BSP_JOYSTICK
      000000D8H   SFRSYM    DATA     BIT       UART1FCN1_RIE
      000000C0H   SFRSYM    DATA     BIT       TMR5CN0_T5XCLK0
      000000A8H.5 SFRSYM    DATA     BIT       IE_ET2
      00000088H   SFRSYM    DATA     BIT       DACGCF0_D1SRC0
      000000D5H   SFRSYM    DATA     BYTE      P1SKIP
      000000C0H.1 SFRSYM    DATA     BIT       TMR5CN0_T5XCLK1
      00000088H.1 SFRSYM    DATA     BIT       DACGCF0_D1SRC1
      000000CCH   SFRSYM    DATA     BYTE      P2SKIP
      00000084H   SFRSYM    DATA     BYTE      CLU0MX
      000000E8H   SFRSYM    DATA     BYTE      ADC0CN0
      000000D8H.4 SFRSYM    DATA     BIT       UART1FCN1_TIE
      000000A8H   SFRSYM    DATA     BIT       IE_EX0
LX51 LINKER/LOCATER V4.66.30.0                                                        05/06/2017  23:10:53  PAGE 54


      00000088H.4 SFRSYM    DATA     BIT       DACGCF0_D3SRC0
      00000085H   SFRSYM    DATA     BYTE      CLU1MX
      000000B2H   SFRSYM    DATA     BYTE      ADC0CN1
      000000D8H.6 SFRSYM    DATA     BIT       PCA0CN0_CR
      000000A8H.2 SFRSYM    DATA     BIT       IE_EX1
      00000088H.5 SFRSYM    DATA     BIT       DACGCF0_D3SRC1
      00000091H   SFRSYM    DATA     BYTE      CLU2MX
      000000B3H   SFRSYM    DATA     BYTE      ADC0CN2
      00000090H.5 SFRSYM    DATA     BIT       BSP_LED_B
      000000C8H.7 SFRSYM    DATA     BIT       SCON1_OVR
      000000AAH   SFRSYM    DATA     BYTE      PSTAT0
      000000AEH   SFRSYM    DATA     BYTE      CLU3MX
      000000A0H.2 SFRSYM    DATA     BIT       BSP_BC_EN
      00000098H.7 SFRSYM    DATA     BIT       SCON0_SMODE
      000000B5H   SFRSYM    DATA     BYTE      DEVICEID
      000000A9H   SFRSYM    DATA     BYTE      CLKSEL
      000000F8H   SFRSYM    DATA     BIT       SPI0CN0_SPIEN
      00000085H   SFRSYM    DATA     BYTE      DAC0H
      000000F0H   SFRSYM    DATA     BYTE      B
      000000BEH   SFRSYM    DATA     BYTE      ADC0H
      000000FFH   SFRSYM    DATA     BYTE      I2C0ADM
      0000008AH   SFRSYM    DATA     BYTE      DAC1H
      00000090H.4 SFRSYM    DATA     BIT       BSP_LED_G
      00000088H.2 SFRSYM    DATA     BIT       DACGCF0_D1AMEN
      0000008CH   SFRSYM    DATA     BYTE      DAC2H
      0000008EH   SFRSYM    DATA     BYTE      DAC3H
      00000088H.6 SFRSYM    DATA     BIT       DACGCF0_D3AMEN
      000000CAH   SFRSYM    DATA     WORD      TMR2RL
      00000084H   SFRSYM    DATA     BYTE      DAC0L
      000000BDH   SFRSYM    DATA     BYTE      ADC0L
      00000092H   SFRSYM    DATA     WORD      TMR3RL
      00000089H   SFRSYM    DATA     BYTE      DAC1L
      000000A2H   SFRSYM    DATA     WORD      TMR4RL
      000000D8H   SFRSYM    DATA     BYTE      PCA0CN0
      0000008BH   SFRSYM    DATA     BYTE      DAC2L
      000000E0H   SFRSYM    DATA     BYTE      ACC
      000000D2H   SFRSYM    DATA     WORD      TMR5RL
      000000D9H   SFRSYM    DATA     BYTE      UART0PCF
      0000008DH   SFRSYM    DATA     BYTE      DAC3L
      000000FBH   SFRSYM    DATA     WORD      PCA0CP0
      000000DAH   SFRSYM    DATA     BYTE      UART1PCF
      000000E9H   SFRSYM    DATA     WORD      PCA0CP1
      00000088H   SFRSYM    DATA     BYTE      DACGCF0
      000000EBH   SFRSYM    DATA     WORD      PCA0CP2
      000000BCH   SFRSYM    DATA     BYTE      I2C0DIN
      00000098H   SFRSYM    DATA     BYTE      DACGCF1
      000000CEH   SFRSYM    DATA     BYTE      CRC0CN0
      000000F4H   SFRSYM    DATA     WORD      PCA0CP3
      0000008CH   SFRSYM    DATA     BYTE      TH0
      000000A2H   SFRSYM    DATA     BYTE      DACGCF2
      00000086H   SFRSYM    DATA     BYTE      CRC0CN1
      000000B8H.4 SFRSYM    DATA     BIT       IP_PS0
      00000084H   SFRSYM    DATA     WORD      PCA0CP4
      000000FAH   SFRSYM    DATA     BYTE      UART1FCT
      0000008DH   SFRSYM    DATA     BYTE      TH1
      000000FAH   SFRSYM    DATA     BYTE      PCA0H
      000000F5H   SFRSYM    DATA     BYTE      I2C0FCT
      00000090H.6 SFRSYM    DATA     BIT       BSP_LED_R
      000000B8H.1 SFRSYM    DATA     BIT       IP_PT0
      000000DDH   SFRSYM    DATA     WORD      PCA0CP5
      000000C7H   SFRSYM    DATA     BYTE      CLIE0
      000000B8H.3 SFRSYM    DATA     BIT       IP_PT1
LX51 LINKER/LOCATER V4.66.30.0                                                        05/06/2017  23:10:53  PAGE 55


      00000088H.3 SFRSYM    DATA     BIT       DACGCF0_D01REFSL
      000000B5H   SFRSYM    DATA     WORD      ADC0ASA
      000000E8H   SFRSYM    DATA     BYTE      CLIF0
      000000C0H.2 SFRSYM    DATA     BIT       SMB0CN0_ARBLOST
      000000B8H.5 SFRSYM    DATA     BIT       IP_PT2
      0000008AH   SFRSYM    DATA     BYTE      TL0
      000000D0H.5 SFRSYM    DATA     BIT       PSW_F0
      000000A8H.6 SFRSYM    DATA     BIT       IE_ESPI0
      0000008BH   SFRSYM    DATA     BYTE      TL1
      000000F9H   SFRSYM    DATA     BYTE      PCA0L
      000000C0H   SFRSYM    DATA     BIT       SMB0CN0_SI
      000000D0H.1 SFRSYM    DATA     BIT       PSW_F1
      00000080H   SFRSYM    DATA     BIT       P0_B0
      000000B8H   SFRSYM    DATA     BIT       IP_PX0
      00000090H   SFRSYM    DATA     BIT       P1_B0
      00000080H.1 SFRSYM    DATA     BIT       P0_B1
      000000B8H.2 SFRSYM    DATA     BIT       IP_PX1
      00000088H.7 SFRSYM    DATA     BIT       DACGCF0_D23REFSL
      0000009EH   SFRSYM    DATA     BYTE      UART1LIN
      0000009BH   SFRSYM    DATA     BYTE      CMP0CN0
      000000C6H   SFRSYM    DATA     BYTE      CLEN0
      00000088H.1 SFRSYM    DATA     BIT       TCON_IE0
      000000A0H   SFRSYM    DATA     BIT       P2_B0
      00000090H.1 SFRSYM    DATA     BIT       P1_B1
      00000080H.2 SFRSYM    DATA     BIT       P0_B2
      000000BFH   SFRSYM    DATA     BYTE      CMP1CN0
      00000099H   SFRSYM    DATA     BYTE      CMP0CN1
      00000088H.3 SFRSYM    DATA     BIT       TCON_IE1
      000000B0H   SFRSYM    DATA     BIT       P3_B0
      000000A0H.1 SFRSYM    DATA     BIT       P2_B1
      00000090H.2 SFRSYM    DATA     BIT       P1_B2
      00000080H.3 SFRSYM    DATA     BIT       P0_B3
      000000C0H   SFRSYM    DATA     BYTE      SMB0CN0
      000000ACH   SFRSYM    DATA     BYTE      CMP1CN1
      000000B0H.1 SFRSYM    DATA     BIT       P3_B1
      000000A0H.2 SFRSYM    DATA     BIT       P2_B2
      00000090H.3 SFRSYM    DATA     BIT       P1_B3
      00000080H.4 SFRSYM    DATA     BIT       P0_B4
      000000B0H.2 SFRSYM    DATA     BIT       P3_B2
      000000A0H.3 SFRSYM    DATA     BIT       P2_B3
      00000090H.4 SFRSYM    DATA     BIT       P1_B4
      00000080H.5 SFRSYM    DATA     BIT       P0_B5
      00000098H   SFRSYM    DATA     BIT       DACGCF1_D0UDIS
      000000D8H.1 SFRSYM    DATA     BIT       UART1FCN1_RXTO0
      000000B0H.3 SFRSYM    DATA     BIT       P3_B3
      000000A0H.4 SFRSYM    DATA     BIT       P2_B4
      00000090H.5 SFRSYM    DATA     BIT       P1_B5
      00000080H.6 SFRSYM    DATA     BIT       P0_B6
      00000098H.1 SFRSYM    DATA     BIT       DACGCF1_D1UDIS
      000000EEH   SFRSYM    DATA     BYTE      EIP1H
      000000D8H.2 SFRSYM    DATA     BIT       UART1FCN1_RXTO1
      000000B0H.4 SFRSYM    DATA     BIT       P3_B4
      000000A0H.5 SFRSYM    DATA     BIT       P2_B5
      00000090H.6 SFRSYM    DATA     BIT       P1_B6
      00000080H.7 SFRSYM    DATA     BIT       P0_B7
      00000098H.2 SFRSYM    DATA     BIT       DACGCF1_D2UDIS
      000000C5H   SFRSYM    DATA     BYTE      SMB0RXLN
      000000F6H   SFRSYM    DATA     BYTE      EIP2H
      000000A0H.6 SFRSYM    DATA     BIT       P2_B6
      00000090H.7 SFRSYM    DATA     BIT       P1_B7
      00000098H.3 SFRSYM    DATA     BIT       DACGCF1_D3UDIS
      000000B0H.7 SFRSYM    DATA     BIT       P3_B7
LX51 LINKER/LOCATER V4.66.30.0                                                        05/06/2017  23:10:53  PAGE 56


      00000083H   SFRSYM    DATA     BYTE      DPH
      000000C4H   SFRSYM    DATA     BYTE      ADC0GTH
      000000C8H.7 SFRSYM    DATA     BIT       TMR2CN0_TF2H
      000000C8H.3 SFRSYM    DATA     BIT       TMR2CN0_T2SPLIT
      000000D0H.6 SFRSYM    DATA     BIT       PSW_AC
      000000F8H   SFRSYM    DATA     BYTE      SPI0CN0
      000000C7H   SFRSYM    DATA     BYTE      HFO0CAL
      00000088H.5 SFRSYM    DATA     BIT       TCON_TF0
      00000098H   SFRSYM    DATA     BIT       SCON0_RI
      000000D6H   SFRSYM    DATA     BYTE      HFO1CAL
      00000082H   SFRSYM    DATA     BYTE      DPL
      00000088H.7 SFRSYM    DATA     BIT       TCON_TF1
      000000C8H   SFRSYM    DATA     BIT       SCON1_RI
      00000099H   SFRSYM    DATA     BYTE      SBUF0
      00000087H   SFRSYM    DATA     BYTE      PCON0
      000000F2H   SFRSYM    DATA     BYTE      IPH
      000000C3H   SFRSYM    DATA     BYTE      ADC0GTL
      00000098H.7 SFRSYM    DATA     BIT       TMR4CN0_TF4H
      00000098H.3 SFRSYM    DATA     BIT       TMR4CN0_T4SPLIT
      000000C8H.6 SFRSYM    DATA     BIT       TMR2CN0_TF2L
      00000098H.1 SFRSYM    DATA     BIT       SCON0_TI
      00000092H   SFRSYM    DATA     BYTE      SBUF1
      000000CDH   SFRSYM    DATA     BYTE      PCON1
      000000C6H   SFRSYM    DATA     BYTE      ADC0LTH
      00000088H   SFRSYM    DATA     BIT       TCON_IT0
      000000C8H.1 SFRSYM    DATA     BIT       SCON1_TI
      000000EFH   SFRSYM    DATA     BYTE      RSTSRC
      000000FDH   SFRSYM    DATA     BYTE      P0MAT
      000000CBH   SFRSYM    DATA     BYTE      CRC0DAT
      000000C0H.7 SFRSYM    DATA     BIT       TMR5CN0_TF5H
      000000C0H.3 SFRSYM    DATA     BIT       TMR5CN0_T5SPLIT
      00000088H.2 SFRSYM    DATA     BIT       TCON_IT1
      000000D7H   SFRSYM    DATA     BYTE      SFRSTACK
      00000098H   SFRSYM    DATA     BYTE      SCON0
      000000F6H   SFRSYM    DATA     BYTE      PRTDRV
      000000EDH   SFRSYM    DATA     BYTE      P1MAT
      000000E8H.3 SFRSYM    DATA     BIT       ADC0CN0_ADWINT
      00000093H   SFRSYM    DATA     BYTE      SMOD1
      000000C8H   SFRSYM    DATA     BYTE      SCON1
      000000FBH   SFRSYM    DATA     BYTE      P2MAT
      00000098H.6 SFRSYM    DATA     BIT       TMR4CN0_TF4L
      000000E8H.4 SFRSYM    DATA     BIT       ADC0CN0_ADBUSY
      000000D6H   SFRSYM    DATA     BYTE      SMB0ADM
      000000C5H   SFRSYM    DATA     BYTE      ADC0LTL
      000000F8H.5 SFRSYM    DATA     BIT       SPI0CN0_MODF
      000000B8H.6 SFRSYM    DATA     BIT       IP_PSPI0
      000000E8H.1 SFRSYM    DATA     BIT       ADC0CN0_ADGN0
      0000009CH   SFRSYM    DATA     BYTE      PCA0CLR
      000000C0H.6 SFRSYM    DATA     BIT       TMR5CN0_TF5L
      000000E8H.2 SFRSYM    DATA     BIT       ADC0CN0_ADGN1
      000000C8H   SFRSYM    DATA     BYTE      TMR2CN0
      00000091H   SFRSYM    DATA     BYTE      TMR3CN0
      000000FDH   SFRSYM    DATA     BYTE      TMR2CN1
      00000098H   SFRSYM    DATA     BYTE      TMR4CN0
      000000FEH   SFRSYM    DATA     BYTE      TMR3CN1
      000000B0H.4 SFRSYM    DATA     BIT       BSP_DISP_EN
      000000C0H   SFRSYM    DATA     BYTE      TMR5CN0
      000000FFH   SFRSYM    DATA     BYTE      TMR4CN1
      000000D7H   SFRSYM    DATA     BYTE      SMB0ADR
      00000088H.4 SFRSYM    DATA     BIT       TCON_TR0
      000000F1H   SFRSYM    DATA     BYTE      TMR5CN1
      000000C8H.4 SFRSYM    DATA     BIT       TMR2CN0_TF2CEN
LX51 LINKER/LOCATER V4.66.30.0                                                        05/06/2017  23:10:53  PAGE 57


      00000088H.6 SFRSYM    DATA     BIT       TCON_TR1
      000000C2H   SFRSYM    DATA     BYTE      SMB0DAT
      000000A0H.6 SFRSYM    DATA     BIT       BSP_DISP_CS
      000000CFH   SFRSYM    DATA     BYTE      TMR2H
      000000A1H   SFRSYM    DATA     BYTE      SPI0CFG
      00000095H   SFRSYM    DATA     BYTE      TMR3H
      000000EFH   SFRSYM    DATA     BYTE      HFOCN
      000000D3H   SFRSYM    DATA     BYTE      CRC0CNT
      000000A5H   SFRSYM    DATA     BYTE      TMR4H
      00000098H.4 SFRSYM    DATA     BIT       TMR4CN0_TF4CEN
      000000D5H   SFRSYM    DATA     BYTE      TMR5H
      000000EFH   SFRSYM    DATA     BYTE      SMB0FCT
      00000096H   SFRSYM    DATA     BYTE      PCA0POL
      000000CEH   SFRSYM    DATA     BYTE      TMR2L
      000000C0H.4 SFRSYM    DATA     BIT       TMR5CN0_TF5CEN
      000000F8H.7 SFRSYM    DATA     BIT       SPI0CN0_SPIF
      00000094H   SFRSYM    DATA     BYTE      TMR3L
      000000A8H.7 SFRSYM    DATA     BIT       IE_EA
      000000A4H   SFRSYM    DATA     BYTE      TMR4L
      000000D4H   SFRSYM    DATA     BYTE      TMR5L
      000000C8H.5 SFRSYM    DATA     BIT       TMR2CN0_TF2LEN
      000000F8H.6 SFRSYM    DATA     BIT       SPI0CN0_WCOL
      000000F8H.2 SFRSYM    DATA     BIT       SPI0CN0_NSSMD0
      000000D0H.7 SFRSYM    DATA     BIT       PSW_CY
      0000009DH   SFRSYM    DATA     BYTE      UART1FCN0
      000000DFH   SFRSYM    DATA     BYTE      SPI0PCF
      000000A3H   SFRSYM    DATA     BYTE      SPI0DAT
      000000ADH   SFRSYM    DATA     BYTE      I2C0FCN0
      000000F8H.3 SFRSYM    DATA     BIT       SPI0CN0_NSSMD1
      000000BDH   SFRSYM    DATA     WORD      ADC0
      000000D8H   SFRSYM    DATA     BYTE      UART1FCN1
      000000ABH   SFRSYM    DATA     BYTE      I2C0FCN1
      000000E8H   SFRSYM    DATA     BIT       CLIF0_C0FIF
      00000098H.5 SFRSYM    DATA     BIT       TMR4CN0_TF4LEN
      000000E8H.2 SFRSYM    DATA     BIT       CLIF0_C1FIF
      000000D0H   SFRSYM    DATA     BYTE      PSW
      000000F7H   SFRSYM    DATA     BYTE      PCA0PWM
      000000E8H.4 SFRSYM    DATA     BIT       CLIF0_C2FIF
      000000F7H   SFRSYM    DATA     BYTE      SPI0FCT
      000000B6H   SFRSYM    DATA     BYTE      REVID
      000000C0H.5 SFRSYM    DATA     BIT       TMR5CN0_TF5LEN
      000000E8H.6 SFRSYM    DATA     BIT       CLIF0_C3FIF
      000000B7H   SFRSYM    DATA     BYTE      FLKEY
      020000FDH   SYMBOL    XDATA    WORD      Ticks

      01002CEFH   BLOCK     CODE     ---       LVL=0
      01002CEFH   BLOCK     CODE     NEAR LAB  LVL=1
      00000004H   SYMBOL    DATA     WORD      ticks
      00000007H   SYMBOL    DATA     BYTE      save_page
      ---         BLOCKEND  ---      ---       LVL=1
      01002CEFH   LINE      CODE     ---       #35
      01002CEFH   LINE      CODE     ---       #36
      01002CEFH   LINE      CODE     ---       #38
      01002CF1H   LINE      CODE     ---       #41
      01002CF4H   LINE      CODE     ---       #42
      01002CF7H   LINE      CODE     ---       #44
      01002CFEH   LINE      CODE     ---       #47
      01002D01H   LINE      CODE     ---       #48
      01002D03H   LINE      CODE     ---       #50
      01002D06H   LINE      CODE     ---       #51
      ---         BLOCKEND  ---      ---       LVL=0
      00000002H   SYMBOL    DATA     WORD      ms
LX51 LINKER/LOCATER V4.66.30.0                                                        05/06/2017  23:10:53  PAGE 58



      01002CB8H   BLOCK     CODE     ---       LVL=0
      01002CB8H   LINE      CODE     ---       #79
      01002CBEH   LINE      CODE     ---       #82
      01002CC1H   LINE      CODE     ---       #84
      01002CCFH   LINE      CODE     ---       #85
      ---         BLOCKEND  ---      ---       LVL=0

      ---         MODULE    ---      ---       SPI_0
      0100279AH   PUBLIC    CODE     ---       SPI0_ISR
      02000014H   PUBLIC    XDATA    BYTE      ?_SPI0_transfer?BYTE
      0100294CH   PUBLIC    CODE     ---       _SPI0_transfer
      000000A2H   SFRSYM    DATA     BYTE      SPI0CKR
      00000080H   SFRSYM    DATA     BYTE      P0
      000000C8H.6 SFRSYM    DATA     BIT       SCON1_PERR
      000000D0H.2 SFRSYM    DATA     BIT       PSW_OV
      00000086H   SFRSYM    DATA     BYTE      XOSC0CN
      00000090H   SFRSYM    DATA     BYTE      P1
      000000F8H.1 SFRSYM    DATA     BIT       SPI0CN0_TXNF
      00000097H   SFRSYM    DATA     BYTE      WDTCN
      000000A0H   SFRSYM    DATA     BYTE      P2
      000000B0H   SFRSYM    DATA     BYTE      P3
      000000C0H.7 SFRSYM    DATA     BIT       SMB0CN0_MASTER
      000000F9H   SFRSYM    DATA     WORD      PCA0
      000000E6H   SFRSYM    DATA     BYTE      EIE1
      000000C0H.1 SFRSYM    DATA     BIT       SMB0CN0_ACK
      000000E8H.1 SFRSYM    DATA     BIT       CLIF0_C0RIF
      000000F3H   SFRSYM    DATA     BYTE      EIE2
      000000E8H.3 SFRSYM    DATA     BIT       CLIF0_C1RIF
      000000E8H.5 SFRSYM    DATA     BIT       CLIF0_C2RIF
      0000008FH   SFRSYM    DATA     BYTE      PSCTL
      000000E8H.7 SFRSYM    DATA     BIT       CLIF0_C3RIF
      000000E4H   SFRSYM    DATA     BYTE      IT01CF
      000000C0H.6 SFRSYM    DATA     BIT       SMB0CN0_TXMODE
      000000ADH   SFRSYM    DATA     BYTE      DERIVID
      000000A7H   SFRSYM    DATA     BYTE      SFRPAGE
      000000A4H   SFRSYM    DATA     BYTE      P0MDOUT
      000000A5H   SFRSYM    DATA     BYTE      P1MDOUT
      000000E8H.5 SFRSYM    DATA     BIT       ADC0CN0_ADINT
      000000CBH   SFRSYM    DATA     BYTE      TMR2RLH
      000000A6H   SFRSYM    DATA     BYTE      P2MDOUT
      000000A8H   SFRSYM    DATA     BYTE      IE
      00000093H   SFRSYM    DATA     BYTE      TMR3RLH
      0000009CH   SFRSYM    DATA     BYTE      P3MDOUT
      000000A3H   SFRSYM    DATA     BYTE      TMR4RLH
      000000BBH   SFRSYM    DATA     BYTE      EIP1
      000000D3H   SFRSYM    DATA     BYTE      TMR5RLH
      000000EDH   SFRSYM    DATA     BYTE      EIP2
      00000098H.2 SFRSYM    DATA     BIT       SCON0_RB8
      000000CAH   SFRSYM    DATA     BYTE      TMR2RLL
      000000FCH   SFRSYM    DATA     BYTE      PCA0CPH0
      00000092H   SFRSYM    DATA     BYTE      TMR3RLL
      000000EAH   SFRSYM    DATA     BYTE      PCA0CPH1
      00000098H.3 SFRSYM    DATA     BIT       SCON0_TB8
      000000F0H   SFRSYM    DATA     BIT       B_B0
      00000082H   SFRSYM    DATA     WORD      DP
      000000A2H   SFRSYM    DATA     BYTE      TMR4RLL
      000000ECH   SFRSYM    DATA     BYTE      PCA0CPH2
      000000F0H.1 SFRSYM    DATA     BIT       B_B1
      000000C3H   SFRSYM    DATA     WORD      ADC0GT
      000000D2H   SFRSYM    DATA     BYTE      TMR5RLL
      000000F5H   SFRSYM    DATA     BYTE      PCA0CPH3
LX51 LINKER/LOCATER V4.66.30.0                                                        05/06/2017  23:10:53  PAGE 59


      000000BDH   SFRSYM    DATA     BYTE      I2C0SLAD
      000000D8H.3 SFRSYM    DATA     BIT       UART1FCN1_RFRQ
      000000F0H.2 SFRSYM    DATA     BIT       B_B2
      000000BCH   SFRSYM    DATA     BYTE      SFRPGCN
      000000FBH   SFRSYM    DATA     BYTE      PCA0CPL0
      00000085H   SFRSYM    DATA     BYTE      PCA0CPH4
      000000F0H.3 SFRSYM    DATA     BIT       B_B3
      000000D9H   SFRSYM    DATA     BYTE      PCA0MD
      000000DAH   SFRSYM    DATA     BYTE      PCA0CPM0
      000000E9H   SFRSYM    DATA     BYTE      PCA0CPL1
      000000DEH   SFRSYM    DATA     BYTE      PCA0CPH5
      000000D8H.7 SFRSYM    DATA     BIT       UART1FCN1_TFRQ
      000000F0H.4 SFRSYM    DATA     BIT       B_B4
      000000DBH   SFRSYM    DATA     BYTE      PCA0CPM1
      000000EBH   SFRSYM    DATA     BYTE      PCA0CPL2
      000000A1H   SFRSYM    DATA     BYTE      ADC0ASCF
      000000B6H   SFRSYM    DATA     BYTE      ADC0ASAH
      000000F0H.5 SFRSYM    DATA     BIT       B_B5
      000000E8H.6 SFRSYM    DATA     BIT       ADC0CN0_IPOEN
      000000E8H   SFRSYM    DATA     BIT       ADC0CN0_TEMPE
      000000DCH   SFRSYM    DATA     BYTE      PCA0CPM2
      000000F4H   SFRSYM    DATA     BYTE      PCA0CPL3
      000000B8H   SFRSYM    DATA     BYTE      IP
      000000F0H.6 SFRSYM    DATA     BIT       B_B6
      000000C5H   SFRSYM    DATA     WORD      ADC0LT
      000000AEH   SFRSYM    DATA     BYTE      PCA0CPM3
      00000084H   SFRSYM    DATA     BYTE      PCA0CPL4
      000000D8H.6 SFRSYM    DATA     BIT       UART1FCN1_TXNF
      00000098H.5 SFRSYM    DATA     BIT       SCON0_MCE
      000000F0H.7 SFRSYM    DATA     BIT       B_B7
      000000AFH   SFRSYM    DATA     BYTE      PCA0CPM4
      000000DDH   SFRSYM    DATA     BYTE      PCA0CPL5
      000000C3H   SFRSYM    DATA     BYTE      SMB0FCN0
      000000CCH   SFRSYM    DATA     BYTE      PCA0CPM5
      000000B5H   SFRSYM    DATA     BYTE      ADC0ASAL
      000000E1H   SFRSYM    DATA     BYTE      XBR0
      000000C4H   SFRSYM    DATA     BYTE      SMB0FCN1
      000000C1H   SFRSYM    DATA     BYTE      SMB0CF
      000000E2H   SFRSYM    DATA     BYTE      XBR1
      000000C1H   SFRSYM    DATA     BYTE      PFE0CN
      000000E7H   SFRSYM    DATA     BYTE      EMI0CN
      000000C0H.5 SFRSYM    DATA     BIT       SMB0CN0_STA
      000000E3H   SFRSYM    DATA     BYTE      XBR2
      000000B1H   SFRSYM    DATA     BYTE      CLU0CF
      000000BBH   SFRSYM    DATA     BYTE      ADC0MX
      000000E0H   SFRSYM    DATA     BIT       ACC_ACC0
      000000D1H   SFRSYM    DATA     BYTE      REF0CN
      000000B3H   SFRSYM    DATA     BYTE      CLU1CF
      0000008EH   SFRSYM    DATA     BYTE      CKCON0
      000000E0H.1 SFRSYM    DATA     BIT       ACC_ACC1
      000000C9H   SFRSYM    DATA     BYTE      REG0CN
      000000CAH   SFRSYM    DATA     BYTE      CRC0IN
      000000B6H   SFRSYM    DATA     BYTE      CLU2CF
      000000A6H   SFRSYM    DATA     BYTE      CKCON1
      000000C8H.2 SFRSYM    DATA     BIT       TMR2CN0_TR2
      000000E0H.2 SFRSYM    DATA     BIT       ACC_ACC2
      000000BFH   SFRSYM    DATA     BYTE      CLU3CF
      000000E0H.3 SFRSYM    DATA     BIT       ACC_ACC3
      00000081H   SFRSYM    DATA     BYTE      SP
      0000009DH   SFRSYM    DATA     BYTE      CMP0MD
      000000E0H.4 SFRSYM    DATA     BIT       ACC_ACC4
      000000B1H   SFRSYM    DATA     BYTE      LFO0CN
LX51 LINKER/LOCATER V4.66.30.0                                                        05/06/2017  23:10:53  PAGE 60


      000000ABH   SFRSYM    DATA     BYTE      CMP1MD
      000000D8H   SFRSYM    DATA     BIT       PCA0CN0_CCF0
      000000E0H.5 SFRSYM    DATA     BIT       ACC_ACC5
      00000098H.2 SFRSYM    DATA     BIT       TMR4CN0_TR4
      000000D8H.1 SFRSYM    DATA     BIT       PCA0CN0_CCF1
      000000E0H.6 SFRSYM    DATA     BIT       ACC_ACC6
      000000CEH   SFRSYM    DATA     WORD      TMR2
      0000009AH   SFRSYM    DATA     BYTE      SPI0FCN0
      000000C7H   SFRSYM    DATA     BYTE      ADC0ASCT
      000000D8H.2 SFRSYM    DATA     BIT       PCA0CN0_CCF2
      000000E0H.7 SFRSYM    DATA     BIT       ACC_ACC7
      00000094H   SFRSYM    DATA     WORD      TMR3
      0000009BH   SFRSYM    DATA     BYTE      SPI0FCN1
      000000C0H.2 SFRSYM    DATA     BIT       TMR5CN0_TR5
      000000D8H.3 SFRSYM    DATA     BIT       PCA0CN0_CCF3
      000000A4H   SFRSYM    DATA     WORD      TMR4
      00000094H   SFRSYM    DATA     BYTE      SBCON1
      000000D8H.4 SFRSYM    DATA     BIT       PCA0CN0_CCF4
      000000D4H   SFRSYM    DATA     WORD      TMR5
      000000C0H.3 SFRSYM    DATA     BIT       SMB0CN0_ACKRQ
      000000D8H.5 SFRSYM    DATA     BIT       PCA0CN0_CCF5
      000000FFH   SFRSYM    DATA     BYTE      VDM0CN
      000000F1H   SFRSYM    DATA     BYTE      P0MDIN
      000000AFH   SFRSYM    DATA     BYTE      CLU0FN
      00000098H.4 SFRSYM    DATA     BIT       SCON0_REN
      000000ACH   SFRSYM    DATA     BYTE      SMB0TC
      000000F2H   SFRSYM    DATA     BYTE      P1MDIN
      000000B2H   SFRSYM    DATA     BYTE      CLU1FN
      000000C8H.4 SFRSYM    DATA     BIT       SCON1_REN
      000000F3H   SFRSYM    DATA     BYTE      P2MDIN
      000000B5H   SFRSYM    DATA     BYTE      CLU2FN
      000000C0H.4 SFRSYM    DATA     BIT       SMB0CN0_STO
      000000F4H   SFRSYM    DATA     BYTE      P3MDIN
      000000B9H   SFRSYM    DATA     BYTE      I2C0STAT
      000000BBH   SFRSYM    DATA     BYTE      I2C0DOUT
      000000BEH   SFRSYM    DATA     BYTE      CLU3FN
      00000096H   SFRSYM    DATA     BYTE      SBRLH1
      000000FEH   SFRSYM    DATA     BYTE      P0MASK
      000000D8H.5 SFRSYM    DATA     BIT       UART1FCN1_TXHOLD
      000000EEH   SFRSYM    DATA     BYTE      P1MASK
      000000FCH   SFRSYM    DATA     BYTE      P2MASK
      000000D0H.3 SFRSYM    DATA     BIT       PSW_RS0
      000000D8H.7 SFRSYM    DATA     BIT       PCA0CN0_CF
      0000009EH   SFRSYM    DATA     BYTE      PCA0CENT
      000000BAH   SFRSYM    DATA     BYTE      I2C0CN0
      000000D2H   SFRSYM    DATA     BYTE      CRC0ST
      000000F8H.4 SFRSYM    DATA     BIT       SPI0CN0_RXOVRN
      000000D0H.4 SFRSYM    DATA     BIT       PSW_RS1
      00000095H   SFRSYM    DATA     BYTE      SBRLL1
      000000C8H.2 SFRSYM    DATA     BIT       SCON1_RBX
      00000091H   SFRSYM    DATA     BYTE      DAC0CF0
      000000BCH   SFRSYM    DATA     BYTE      ADC0CF0
      000000C8H   SFRSYM    DATA     BIT       TMR2CN0_T2XCLK0
      00000093H   SFRSYM    DATA     BYTE      DAC1CF0
      00000092H   SFRSYM    DATA     BYTE      DAC0CF1
      000000B9H   SFRSYM    DATA     BYTE      ADC0CF1
      000000C8H.1 SFRSYM    DATA     BIT       TMR2CN0_T2XCLK1
      000000C8H.3 SFRSYM    DATA     BIT       SCON1_TBX
      000000E8H.7 SFRSYM    DATA     BIT       ADC0CN0_ADEN
      00000089H   SFRSYM    DATA     BYTE      TMOD
      00000088H   SFRSYM    DATA     BYTE      TCON
      00000095H   SFRSYM    DATA     BYTE      DAC2CF0
LX51 LINKER/LOCATER V4.66.30.0                                                        05/06/2017  23:10:53  PAGE 61


      00000094H   SFRSYM    DATA     BYTE      DAC1CF1
      000000DFH   SFRSYM    DATA     BYTE      ADC0CF2
      0000009AH   SFRSYM    DATA     BYTE      DAC3CF0
      00000096H   SFRSYM    DATA     BYTE      DAC2CF1
      000000CFH   SFRSYM    DATA     BYTE      CRC0FLIP
      000000D0H   SFRSYM    DATA     BIT       PSW_PARITY
      000000A8H.4 SFRSYM    DATA     BIT       IE_ES0
      0000009CH   SFRSYM    DATA     BYTE      DAC3CF1
      0000009FH   SFRSYM    DATA     BYTE      CMP0MX
      00000098H   SFRSYM    DATA     BIT       TMR4CN0_T4XCLK0
      000000A8H.1 SFRSYM    DATA     BIT       IE_ET0
      000000AAH   SFRSYM    DATA     BYTE      CMP1MX
      00000098H.1 SFRSYM    DATA     BIT       TMR4CN0_T4XCLK1
      000000A8H.3 SFRSYM    DATA     BIT       IE_ET1
      000000D4H   SFRSYM    DATA     BYTE      P0SKIP
      000000D1H   SFRSYM    DATA     BYTE      CLOUT0
      000000D8H   SFRSYM    DATA     BIT       UART1FCN1_RIE
      000000C0H   SFRSYM    DATA     BIT       TMR5CN0_T5XCLK0
      000000A8H.5 SFRSYM    DATA     BIT       IE_ET2
      00000088H   SFRSYM    DATA     BIT       DACGCF0_D1SRC0
      000000D5H   SFRSYM    DATA     BYTE      P1SKIP
      000000C0H.1 SFRSYM    DATA     BIT       TMR5CN0_T5XCLK1
      00000088H.1 SFRSYM    DATA     BIT       DACGCF0_D1SRC1
      000000CCH   SFRSYM    DATA     BYTE      P2SKIP
      00000084H   SFRSYM    DATA     BYTE      CLU0MX
      000000E8H   SFRSYM    DATA     BYTE      ADC0CN0
      000000D8H.4 SFRSYM    DATA     BIT       UART1FCN1_TIE
      000000A8H   SFRSYM    DATA     BIT       IE_EX0
      00000088H.4 SFRSYM    DATA     BIT       DACGCF0_D3SRC0
      00000085H   SFRSYM    DATA     BYTE      CLU1MX
      000000B2H   SFRSYM    DATA     BYTE      ADC0CN1
      000000D8H.6 SFRSYM    DATA     BIT       PCA0CN0_CR
      000000A8H.2 SFRSYM    DATA     BIT       IE_EX1
      00000088H.5 SFRSYM    DATA     BIT       DACGCF0_D3SRC1
      00000091H   SFRSYM    DATA     BYTE      CLU2MX
      000000B3H   SFRSYM    DATA     BYTE      ADC0CN2
      000000C8H.7 SFRSYM    DATA     BIT       SCON1_OVR
      000000AAH   SFRSYM    DATA     BYTE      PSTAT0
      000000AEH   SFRSYM    DATA     BYTE      CLU3MX
      00000098H.7 SFRSYM    DATA     BIT       SCON0_SMODE
      000000B5H   SFRSYM    DATA     BYTE      DEVICEID
      000000A9H   SFRSYM    DATA     BYTE      CLKSEL
      000000F8H   SFRSYM    DATA     BIT       SPI0CN0_SPIEN
      00000085H   SFRSYM    DATA     BYTE      DAC0H
      000000F0H   SFRSYM    DATA     BYTE      B
      000000BEH   SFRSYM    DATA     BYTE      ADC0H
      000000FFH   SFRSYM    DATA     BYTE      I2C0ADM
      0000008AH   SFRSYM    DATA     BYTE      DAC1H
      00000088H.2 SFRSYM    DATA     BIT       DACGCF0_D1AMEN
      0000008CH   SFRSYM    DATA     BYTE      DAC2H
      0000008EH   SFRSYM    DATA     BYTE      DAC3H
      00000088H.6 SFRSYM    DATA     BIT       DACGCF0_D3AMEN
      000000CAH   SFRSYM    DATA     WORD      TMR2RL
      00000084H   SFRSYM    DATA     BYTE      DAC0L
      000000BDH   SFRSYM    DATA     BYTE      ADC0L
      00000092H   SFRSYM    DATA     WORD      TMR3RL
      00000089H   SFRSYM    DATA     BYTE      DAC1L
      000000A2H   SFRSYM    DATA     WORD      TMR4RL
      000000D8H   SFRSYM    DATA     BYTE      PCA0CN0
      0000008BH   SFRSYM    DATA     BYTE      DAC2L
      000000E0H   SFRSYM    DATA     BYTE      ACC
      000000D2H   SFRSYM    DATA     WORD      TMR5RL
LX51 LINKER/LOCATER V4.66.30.0                                                        05/06/2017  23:10:53  PAGE 62


      000000D9H   SFRSYM    DATA     BYTE      UART0PCF
      0000008DH   SFRSYM    DATA     BYTE      DAC3L
      000000FBH   SFRSYM    DATA     WORD      PCA0CP0
      000000DAH   SFRSYM    DATA     BYTE      UART1PCF
      000000E9H   SFRSYM    DATA     WORD      PCA0CP1
      00000088H   SFRSYM    DATA     BYTE      DACGCF0
      000000EBH   SFRSYM    DATA     WORD      PCA0CP2
      000000BCH   SFRSYM    DATA     BYTE      I2C0DIN
      00000098H   SFRSYM    DATA     BYTE      DACGCF1
      000000CEH   SFRSYM    DATA     BYTE      CRC0CN0
      000000F4H   SFRSYM    DATA     WORD      PCA0CP3
      0000008CH   SFRSYM    DATA     BYTE      TH0
      000000A2H   SFRSYM    DATA     BYTE      DACGCF2
      00000086H   SFRSYM    DATA     BYTE      CRC0CN1
      000000B8H.4 SFRSYM    DATA     BIT       IP_PS0
      00000084H   SFRSYM    DATA     WORD      PCA0CP4
      000000FAH   SFRSYM    DATA     BYTE      UART1FCT
      0000008DH   SFRSYM    DATA     BYTE      TH1
      000000FAH   SFRSYM    DATA     BYTE      PCA0H
      000000F5H   SFRSYM    DATA     BYTE      I2C0FCT
      000000B8H.1 SFRSYM    DATA     BIT       IP_PT0
      000000DDH   SFRSYM    DATA     WORD      PCA0CP5
      000000C7H   SFRSYM    DATA     BYTE      CLIE0
      000000B8H.3 SFRSYM    DATA     BIT       IP_PT1
      00000088H.3 SFRSYM    DATA     BIT       DACGCF0_D01REFSL
      000000B5H   SFRSYM    DATA     WORD      ADC0ASA
      000000E8H   SFRSYM    DATA     BYTE      CLIF0
      000000C0H.2 SFRSYM    DATA     BIT       SMB0CN0_ARBLOST
      000000B8H.5 SFRSYM    DATA     BIT       IP_PT2
      0000008AH   SFRSYM    DATA     BYTE      TL0
      000000D0H.5 SFRSYM    DATA     BIT       PSW_F0
      000000A8H.6 SFRSYM    DATA     BIT       IE_ESPI0
      0000008BH   SFRSYM    DATA     BYTE      TL1
      000000F9H   SFRSYM    DATA     BYTE      PCA0L
      000000C0H   SFRSYM    DATA     BIT       SMB0CN0_SI
      000000D0H.1 SFRSYM    DATA     BIT       PSW_F1
      00000080H   SFRSYM    DATA     BIT       P0_B0
      000000B8H   SFRSYM    DATA     BIT       IP_PX0
      00000090H   SFRSYM    DATA     BIT       P1_B0
      00000080H.1 SFRSYM    DATA     BIT       P0_B1
      000000B8H.2 SFRSYM    DATA     BIT       IP_PX1
      00000088H.7 SFRSYM    DATA     BIT       DACGCF0_D23REFSL
      0000009EH   SFRSYM    DATA     BYTE      UART1LIN
      0000009BH   SFRSYM    DATA     BYTE      CMP0CN0
      000000C6H   SFRSYM    DATA     BYTE      CLEN0
      00000088H.1 SFRSYM    DATA     BIT       TCON_IE0
      000000A0H   SFRSYM    DATA     BIT       P2_B0
      00000090H.1 SFRSYM    DATA     BIT       P1_B1
      00000080H.2 SFRSYM    DATA     BIT       P0_B2
      000000BFH   SFRSYM    DATA     BYTE      CMP1CN0
      00000099H   SFRSYM    DATA     BYTE      CMP0CN1
      00000088H.3 SFRSYM    DATA     BIT       TCON_IE1
      000000B0H   SFRSYM    DATA     BIT       P3_B0
      000000A0H.1 SFRSYM    DATA     BIT       P2_B1
      00000090H.2 SFRSYM    DATA     BIT       P1_B2
      00000080H.3 SFRSYM    DATA     BIT       P0_B3
      000000C0H   SFRSYM    DATA     BYTE      SMB0CN0
      000000ACH   SFRSYM    DATA     BYTE      CMP1CN1
      000000B0H.1 SFRSYM    DATA     BIT       P3_B1
      000000A0H.2 SFRSYM    DATA     BIT       P2_B2
      00000090H.3 SFRSYM    DATA     BIT       P1_B3
      00000080H.4 SFRSYM    DATA     BIT       P0_B4
LX51 LINKER/LOCATER V4.66.30.0                                                        05/06/2017  23:10:53  PAGE 63


      000000B0H.2 SFRSYM    DATA     BIT       P3_B2
      000000A0H.3 SFRSYM    DATA     BIT       P2_B3
      00000090H.4 SFRSYM    DATA     BIT       P1_B4
      00000080H.5 SFRSYM    DATA     BIT       P0_B5
      00000098H   SFRSYM    DATA     BIT       DACGCF1_D0UDIS
      000000D8H.1 SFRSYM    DATA     BIT       UART1FCN1_RXTO0
      000000B0H.3 SFRSYM    DATA     BIT       P3_B3
      000000A0H.4 SFRSYM    DATA     BIT       P2_B4
      00000090H.5 SFRSYM    DATA     BIT       P1_B5
      00000080H.6 SFRSYM    DATA     BIT       P0_B6
      00000098H.1 SFRSYM    DATA     BIT       DACGCF1_D1UDIS
      000000EEH   SFRSYM    DATA     BYTE      EIP1H
      000000D8H.2 SFRSYM    DATA     BIT       UART1FCN1_RXTO1
      000000B0H.4 SFRSYM    DATA     BIT       P3_B4
      000000A0H.5 SFRSYM    DATA     BIT       P2_B5
      00000090H.6 SFRSYM    DATA     BIT       P1_B6
      00000080H.7 SFRSYM    DATA     BIT       P0_B7
      00000098H.2 SFRSYM    DATA     BIT       DACGCF1_D2UDIS
      000000C5H   SFRSYM    DATA     BYTE      SMB0RXLN
      000000F6H   SFRSYM    DATA     BYTE      EIP2H
      000000A0H.6 SFRSYM    DATA     BIT       P2_B6
      00000090H.7 SFRSYM    DATA     BIT       P1_B7
      00000098H.3 SFRSYM    DATA     BIT       DACGCF1_D3UDIS
      000000B0H.7 SFRSYM    DATA     BIT       P3_B7
      00000083H   SFRSYM    DATA     BYTE      DPH
      000000C4H   SFRSYM    DATA     BYTE      ADC0GTH
      000000C8H.7 SFRSYM    DATA     BIT       TMR2CN0_TF2H
      000000C8H.3 SFRSYM    DATA     BIT       TMR2CN0_T2SPLIT
      000000D0H.6 SFRSYM    DATA     BIT       PSW_AC
      000000F8H   SFRSYM    DATA     BYTE      SPI0CN0
      000000C7H   SFRSYM    DATA     BYTE      HFO0CAL
      00000088H.5 SFRSYM    DATA     BIT       TCON_TF0
      00000098H   SFRSYM    DATA     BIT       SCON0_RI
      000000D6H   SFRSYM    DATA     BYTE      HFO1CAL
      00000082H   SFRSYM    DATA     BYTE      DPL
      00000088H.7 SFRSYM    DATA     BIT       TCON_TF1
      000000C8H   SFRSYM    DATA     BIT       SCON1_RI
      00000099H   SFRSYM    DATA     BYTE      SBUF0
      00000087H   SFRSYM    DATA     BYTE      PCON0
      000000F2H   SFRSYM    DATA     BYTE      IPH
      000000C3H   SFRSYM    DATA     BYTE      ADC0GTL
      00000098H.7 SFRSYM    DATA     BIT       TMR4CN0_TF4H
      00000098H.3 SFRSYM    DATA     BIT       TMR4CN0_T4SPLIT
      000000C8H.6 SFRSYM    DATA     BIT       TMR2CN0_TF2L
      00000098H.1 SFRSYM    DATA     BIT       SCON0_TI
      00000092H   SFRSYM    DATA     BYTE      SBUF1
      000000CDH   SFRSYM    DATA     BYTE      PCON1
      000000C6H   SFRSYM    DATA     BYTE      ADC0LTH
      00000088H   SFRSYM    DATA     BIT       TCON_IT0
      000000C8H.1 SFRSYM    DATA     BIT       SCON1_TI
      000000EFH   SFRSYM    DATA     BYTE      RSTSRC
      000000FDH   SFRSYM    DATA     BYTE      P0MAT
      000000CBH   SFRSYM    DATA     BYTE      CRC0DAT
      000000C0H.7 SFRSYM    DATA     BIT       TMR5CN0_TF5H
      000000C0H.3 SFRSYM    DATA     BIT       TMR5CN0_T5SPLIT
      00000088H.2 SFRSYM    DATA     BIT       TCON_IT1
      000000D7H   SFRSYM    DATA     BYTE      SFRSTACK
      00000098H   SFRSYM    DATA     BYTE      SCON0
      000000F6H   SFRSYM    DATA     BYTE      PRTDRV
      000000EDH   SFRSYM    DATA     BYTE      P1MAT
      000000E8H.3 SFRSYM    DATA     BIT       ADC0CN0_ADWINT
      00000093H   SFRSYM    DATA     BYTE      SMOD1
LX51 LINKER/LOCATER V4.66.30.0                                                        05/06/2017  23:10:53  PAGE 64


      000000C8H   SFRSYM    DATA     BYTE      SCON1
      000000FBH   SFRSYM    DATA     BYTE      P2MAT
      00000098H.6 SFRSYM    DATA     BIT       TMR4CN0_TF4L
      000000E8H.4 SFRSYM    DATA     BIT       ADC0CN0_ADBUSY
      000000D6H   SFRSYM    DATA     BYTE      SMB0ADM
      000000C5H   SFRSYM    DATA     BYTE      ADC0LTL
      000000F8H.5 SFRSYM    DATA     BIT       SPI0CN0_MODF
      000000B8H.6 SFRSYM    DATA     BIT       IP_PSPI0
      000000E8H.1 SFRSYM    DATA     BIT       ADC0CN0_ADGN0
      0000009CH   SFRSYM    DATA     BYTE      PCA0CLR
      000000C0H.6 SFRSYM    DATA     BIT       TMR5CN0_TF5L
      000000E8H.2 SFRSYM    DATA     BIT       ADC0CN0_ADGN1
      000000C8H   SFRSYM    DATA     BYTE      TMR2CN0
      00000091H   SFRSYM    DATA     BYTE      TMR3CN0
      000000FDH   SFRSYM    DATA     BYTE      TMR2CN1
      00000098H   SFRSYM    DATA     BYTE      TMR4CN0
      000000FEH   SFRSYM    DATA     BYTE      TMR3CN1
      000000C0H   SFRSYM    DATA     BYTE      TMR5CN0
      000000FFH   SFRSYM    DATA     BYTE      TMR4CN1
      000000D7H   SFRSYM    DATA     BYTE      SMB0ADR
      00000088H.4 SFRSYM    DATA     BIT       TCON_TR0
      000000F1H   SFRSYM    DATA     BYTE      TMR5CN1
      000000C8H.4 SFRSYM    DATA     BIT       TMR2CN0_TF2CEN
      00000088H.6 SFRSYM    DATA     BIT       TCON_TR1
      000000C2H   SFRSYM    DATA     BYTE      SMB0DAT
      000000CFH   SFRSYM    DATA     BYTE      TMR2H
      000000A1H   SFRSYM    DATA     BYTE      SPI0CFG
      00000095H   SFRSYM    DATA     BYTE      TMR3H
      000000EFH   SFRSYM    DATA     BYTE      HFOCN
      000000D3H   SFRSYM    DATA     BYTE      CRC0CNT
      000000A5H   SFRSYM    DATA     BYTE      TMR4H
      00000098H.4 SFRSYM    DATA     BIT       TMR4CN0_TF4CEN
      000000D5H   SFRSYM    DATA     BYTE      TMR5H
      000000EFH   SFRSYM    DATA     BYTE      SMB0FCT
      00000096H   SFRSYM    DATA     BYTE      PCA0POL
      000000CEH   SFRSYM    DATA     BYTE      TMR2L
      000000C0H.4 SFRSYM    DATA     BIT       TMR5CN0_TF5CEN
      000000F8H.7 SFRSYM    DATA     BIT       SPI0CN0_SPIF
      00000094H   SFRSYM    DATA     BYTE      TMR3L
      000000A8H.7 SFRSYM    DATA     BIT       IE_EA
      000000A4H   SFRSYM    DATA     BYTE      TMR4L
      000000D4H   SFRSYM    DATA     BYTE      TMR5L
      000000C8H.5 SFRSYM    DATA     BIT       TMR2CN0_TF2LEN
      000000F8H.6 SFRSYM    DATA     BIT       SPI0CN0_WCOL
      000000F8H.2 SFRSYM    DATA     BIT       SPI0CN0_NSSMD0
      000000D0H.7 SFRSYM    DATA     BIT       PSW_CY
      0000009DH   SFRSYM    DATA     BYTE      UART1FCN0
      000000DFH   SFRSYM    DATA     BYTE      SPI0PCF
      000000A3H   SFRSYM    DATA     BYTE      SPI0DAT
      000000ADH   SFRSYM    DATA     BYTE      I2C0FCN0
      000000F8H.3 SFRSYM    DATA     BIT       SPI0CN0_NSSMD1
      000000BDH   SFRSYM    DATA     WORD      ADC0
      000000D8H   SFRSYM    DATA     BYTE      UART1FCN1
      000000ABH   SFRSYM    DATA     BYTE      I2C0FCN1
      000000E8H   SFRSYM    DATA     BIT       CLIF0_C0FIF
      00000098H.5 SFRSYM    DATA     BIT       TMR4CN0_TF4LEN
      000000E8H.2 SFRSYM    DATA     BIT       CLIF0_C1FIF
      000000D0H   SFRSYM    DATA     BYTE      PSW
      000000F7H   SFRSYM    DATA     BYTE      PCA0PWM
      000000E8H.4 SFRSYM    DATA     BIT       CLIF0_C2FIF
      000000F7H   SFRSYM    DATA     BYTE      SPI0FCT
      000000B6H   SFRSYM    DATA     BYTE      REVID
LX51 LINKER/LOCATER V4.66.30.0                                                        05/06/2017  23:10:53  PAGE 65


      000000C0H.5 SFRSYM    DATA     BIT       TMR5CN0_TF5LEN
      000000E8H.6 SFRSYM    DATA     BIT       CLIF0_C3FIF
      000000B7H   SFRSYM    DATA     BYTE      FLKEY
      00000021H.1 SYMBOL    BIT      BIT       useNss
      020000F3H   SYMBOL    XDATA    BYTE      rxCountRemaining
      00000021H.2 SYMBOL    BIT      BIT       useRx
      020000F4H   SYMBOL    XDATA    BYTE      txCountRemaining
      00000021H.3 SYMBOL    BIT      BIT       useTx
      020000F5H   SYMBOL    XDATA    BYTE      bytesRemaining
      00000021H.4 SYMBOL    BIT      BIT       modeIsMaster
      020000F6H   SYMBOL    XDATA    ---       pRxBuf
      020000F8H   SYMBOL    XDATA    ---       pTxBuf
      00000021H.5 SYMBOL    BIT      BIT       initIsValid
      01002DA4H   SYMBOL    CODE     ---       SPI0_internalInit

      01002DA4H   BLOCK     CODE     ---       LVL=0
      01002DA4H   LINE      CODE     ---       #50
      01002DA4H   LINE      CODE     ---       #51
      01002DA4H   LINE      CODE     ---       #53
      01002DAAH   LINE      CODE     ---       #54
      01002DB2H   LINE      CODE     ---       #57
      01002DB4H   LINE      CODE     ---       #58
      ---         BLOCKEND  ---      ---       LVL=0
      00000006H   SYMBOL    DATA     BYTE      ret
      00000007H   SYMBOL    DATA     BYTE      savedPage
      00000007H   SYMBOL    DATA     BYTE      flags
      00000006H   SYMBOL    DATA     BYTE      savedPage
      00000007H   SYMBOL    DATA     BYTE      value
      00000006H   SYMBOL    DATA     BYTE      savedPage
      00000007H   SYMBOL    DATA     BYTE      value
      00000006H   SYMBOL    DATA     BYTE      savedPage
      00000006H   SYMBOL    DATA     BYTE      ret
      00000007H   SYMBOL    DATA     BYTE      savedPage
      00000006H   SYMBOL    DATA     BYTE      ret
      00000007H   SYMBOL    DATA     BYTE      savedPage
      00000000H   SYMBOL    DATA     ---       pTxBuffer
      00000004H   SYMBOL    DATA     ---       pRxBuffer
      00000003H   SYMBOL    DATA     BYTE      dir
      00000001H   SYMBOL    DATA     BYTE      txCount
      00000007H   SYMBOL    DATA     BYTE      count
      00000006H   SYMBOL    DATA     BYTE      savedPage
      00000007H   SYMBOL    DATA     BYTE      savedPage
      00000007H   SYMBOL    DATA     BYTE      savedPage
      00000007H   SYMBOL    DATA     BYTE      savedPage
      00000007H   SYMBOL    DATA     BYTE      savedPage
      00000007H   SYMBOL    DATA     BYTE      clockMode
      00000006H   SYMBOL    DATA     BYTE      savedPage
      00000006H   SYMBOL    DATA     WORD      divider
      00000005H   SYMBOL    DATA     BYTE      savedPage
      00000007H   SYMBOL    DATA     BYTE      savedPage
      00000007H   SYMBOL    DATA     BYTE      savedPage
      00000007H   SYMBOL    DATA     BYTE      savedPage
      00000006H   SYMBOL    DATA     BYTE      ret
      00000007H   SYMBOL    DATA     BYTE      savedPage
      00000006H   SYMBOL    DATA     BYTE      ret
      00000007H   SYMBOL    DATA     BYTE      savedPage
      00000007H   SYMBOL    DATA     BYTE      txThreshold
      00000005H   SYMBOL    DATA     BYTE      rxThreshold
      00000003H   SYMBOL    DATA     BYTE      rxTimeout
      00000006H   SYMBOL    DATA     BYTE      fifoCtrl
      00000001H   SYMBOL    DATA     BYTE      savedPage

LX51 LINKER/LOCATER V4.66.30.0                                                        05/06/2017  23:10:53  PAGE 66


      0100294CH   BLOCK     CODE     ---       LVL=0
      00000007H   SYMBOL    DATA     ---       pTxBuffer
      00000004H   SYMBOL    DATA     ---       pRxBuffer
      00000003H   SYMBOL    DATA     BYTE      dir
      02000018H   SYMBOL    XDATA    BYTE      xferCount
      0100294CH   BLOCK     CODE     NEAR LAB  LVL=1
      00000007H   SYMBOL    DATA     BYTE      savedPage
      ---         BLOCKEND  ---      ---       LVL=1
      0100294CH   LINE      CODE     ---       #591
      0100294CH   LINE      CODE     ---       #597
      0100294CH   LINE      CODE     ---       #600
      01002954H   LINE      CODE     ---       #601
      01002956H   LINE      CODE     ---       #602
      01002958H   LINE      CODE     ---       #603
      0100295DH   LINE      CODE     ---       #604
      01002967H   LINE      CODE     ---       #605
      0100296BH   LINE      CODE     ---       #606
      01002970H   LINE      CODE     ---       #608
      01002975H   LINE      CODE     ---       #611
      01002978H   LINE      CODE     ---       #612
      01002978H   LINE      CODE     ---       #613
      0100297BH   LINE      CODE     ---       #614
      0100297BH   LINE      CODE     ---       #618
      0100297BH   LINE      CODE     ---       #620
      0100297EH   LINE      CODE     ---       #621
      0100297EH   LINE      CODE     ---       #634
      01002981H   LINE      CODE     ---       #637
      01002984H   LINE      CODE     ---       #638
      01002987H   LINE      CODE     ---       #641
      0100298DH   LINE      CODE     ---       #642
      0100298DH   LINE      CODE     ---       #643
      0100298FH   LINE      CODE     ---       #644
      0100298FH   LINE      CODE     ---       #648
      01002998H   LINE      CODE     ---       #649
      01002998H   LINE      CODE     ---       #651
      0100299BH   LINE      CODE     ---       #652
      0100299BH   LINE      CODE     ---       #653
      010029A3H   LINE      CODE     ---       #654
      010029A6H   LINE      CODE     ---       #655
      010029A8H   LINE      CODE     ---       #659
      010029A8H   LINE      CODE     ---       #660
      010029ABH   LINE      CODE     ---       #661
      010029ABH   LINE      CODE     ---       #662
      010029B1H   LINE      CODE     ---       #663
      010029B1H   LINE      CODE     ---       #684
      010029B3H   LINE      CODE     ---       #687
      ---         BLOCKEND  ---      ---       LVL=0
      00000007H   SYMBOL    DATA     BYTE      savedPage

      0100279AH   BLOCK     CODE     ---       LVL=0
      010027B7H   BLOCK     CODE     NEAR LAB  LVL=1
      00000007H   SYMBOL    DATA     BYTE      intFlags
      00000007H   SYMBOL    DATA     BYTE      fifoFlags
      010027F5H   BLOCK     CODE     NEAR LAB  LVL=2
      02000019H   SYMBOL    XDATA    BYTE      dummy
      ---         BLOCKEND  ---      ---       LVL=2
      ---         BLOCKEND  ---      ---       LVL=1
      0100279AH   LINE      CODE     ---       #733
      010027B7H   LINE      CODE     ---       #740
      010027BAH   LINE      CODE     ---       #743
      010027BEH   LINE      CODE     ---       #744
      010027C3H   LINE      CODE     ---       #749
LX51 LINKER/LOCATER V4.66.30.0                                                        05/06/2017  23:10:53  PAGE 67


      010027C5H   LINE      CODE     ---       #754
      010027C9H   LINE      CODE     ---       #755
      010027C9H   LINE      CODE     ---       #761
      010027D4H   LINE      CODE     ---       #763
      010027D4H   LINE      CODE     ---       #765
      010027D7H   LINE      CODE     ---       #766
      010027D7H   LINE      CODE     ---       #767
      010027E5H   LINE      CODE     ---       #768
      010027F3H   LINE      CODE     ---       #769
      010027F5H   LINE      CODE     ---       #773
      010027F5H   LINE      CODE     ---       #774
      010027FBH   LINE      CODE     ---       #775
      010027FBH   LINE      CODE     ---       #776
      01002801H   LINE      CODE     ---       #780
      01002804H   LINE      CODE     ---       #781
      01002804H   LINE      CODE     ---       #783
      0100280AH   LINE      CODE     ---       #784
      0100280AH   LINE      CODE     ---       #785
      0100280CH   LINE      CODE     ---       #786
      0100280CH   LINE      CODE     ---       #788
      0100280FH   LINE      CODE     ---       #789
      01002811H   LINE      CODE     ---       #794
      01002811H   LINE      CODE     ---       #795
      01002819H   LINE      CODE     ---       #796
      01002819H   LINE      CODE     ---       #797
      01002819H   LINE      CODE     ---       #804
      01002822H   LINE      CODE     ---       #806
      01002822H   LINE      CODE     ---       #808
      01002825H   LINE      CODE     ---       #809
      01002825H   LINE      CODE     ---       #810
      0100282DH   LINE      CODE     ---       #811
      01002830H   LINE      CODE     ---       #812
      01002832H   LINE      CODE     ---       #816
      01002832H   LINE      CODE     ---       #817
      01002835H   LINE      CODE     ---       #818
      01002835H   LINE      CODE     ---       #819
      0100283BH   LINE      CODE     ---       #820
      0100283BH   LINE      CODE     ---       #821
      0100283BH   LINE      CODE     ---       #833
      ---         BLOCKEND  ---      ---       LVL=0

      ---         MODULE    ---      ---       INITDEVICE
      01002D1EH   PUBLIC    CODE     ---       INTERRUPT_0_enter_DefaultMode_from_RESET
      01000036H   PUBLIC    CODE     ---       SPI_0_enter_DefaultMode_from_RESET
      01000003H   PUBLIC    CODE     ---       TIMER16_4_enter_DefaultMode_from_RESET
      01002CD6H   PUBLIC    CODE     ---       TIMER16_3_enter_DefaultMode_from_RESET
      01002DFAH   PUBLIC    CODE     ---       VREF_0_enter_DefaultMode_from_RESET
      01002E11H   PUBLIC    CODE     ---       DACGCF_0_enter_DefaultMode_from_RESET
      01002E0DH   PUBLIC    CODE     ---       DAC_1_enter_DefaultMode_from_RESET
      01002DF3H   PUBLIC    CODE     ---       DAC_0_enter_DefaultMode_from_RESET
      01002D5BH   PUBLIC    CODE     ---       ADC_0_enter_DefaultMode_from_RESET
      01002E09H   PUBLIC    CODE     ---       PORTS_3_enter_DefaultMode_from_RESET
      01002E05H   PUBLIC    CODE     ---       UART_0_enter_DefaultMode_from_RESET
      01002DE1H   PUBLIC    CODE     ---       TIMER_SETUP_0_enter_DefaultMode_from_RESET
      01002D48H   PUBLIC    CODE     ---       TIMER01_0_enter_DefaultMode_from_RESET
      01000025H   PUBLIC    CODE     ---       CLOCK_0_enter_DefaultMode_from_RESET
      01002DD7H   PUBLIC    CODE     ---       PBCFG_0_enter_DefaultMode_from_RESET
      01002DCDH   PUBLIC    CODE     ---       PORTS_2_enter_DefaultMode_from_RESET
      01002D92H   PUBLIC    CODE     ---       PORTS_1_enter_DefaultMode_from_RESET
      01002D80H   PUBLIC    CODE     ---       PORTS_0_enter_DefaultMode_from_RESET
      01002DC3H   PUBLIC    CODE     ---       WDT_0_enter_DefaultMode_from_RESET
      01002B86H   PUBLIC    CODE     ---       enter_DefaultMode_from_RESET
LX51 LINKER/LOCATER V4.66.30.0                                                        05/06/2017  23:10:53  PAGE 68


      000000A2H   SFRSYM    DATA     BYTE      SPI0CKR
      00000080H   SFRSYM    DATA     BYTE      P0
      000000C8H.6 SFRSYM    DATA     BIT       SCON1_PERR
      000000D0H.2 SFRSYM    DATA     BIT       PSW_OV
      00000086H   SFRSYM    DATA     BYTE      XOSC0CN
      00000090H   SFRSYM    DATA     BYTE      P1
      000000F8H.1 SFRSYM    DATA     BIT       SPI0CN0_TXNF
      00000097H   SFRSYM    DATA     BYTE      WDTCN
      000000A0H   SFRSYM    DATA     BYTE      P2
      000000B0H   SFRSYM    DATA     BYTE      P3
      000000C0H.7 SFRSYM    DATA     BIT       SMB0CN0_MASTER
      000000F9H   SFRSYM    DATA     WORD      PCA0
      000000E6H   SFRSYM    DATA     BYTE      EIE1
      000000C0H.1 SFRSYM    DATA     BIT       SMB0CN0_ACK
      000000E8H.1 SFRSYM    DATA     BIT       CLIF0_C0RIF
      000000F3H   SFRSYM    DATA     BYTE      EIE2
      000000E8H.3 SFRSYM    DATA     BIT       CLIF0_C1RIF
      000000E8H.5 SFRSYM    DATA     BIT       CLIF0_C2RIF
      0000008FH   SFRSYM    DATA     BYTE      PSCTL
      000000E8H.7 SFRSYM    DATA     BIT       CLIF0_C3RIF
      000000E4H   SFRSYM    DATA     BYTE      IT01CF
      000000C0H.6 SFRSYM    DATA     BIT       SMB0CN0_TXMODE
      000000ADH   SFRSYM    DATA     BYTE      DERIVID
      000000A7H   SFRSYM    DATA     BYTE      SFRPAGE
      000000A4H   SFRSYM    DATA     BYTE      P0MDOUT
      000000A5H   SFRSYM    DATA     BYTE      P1MDOUT
      000000E8H.5 SFRSYM    DATA     BIT       ADC0CN0_ADINT
      000000CBH   SFRSYM    DATA     BYTE      TMR2RLH
      000000A6H   SFRSYM    DATA     BYTE      P2MDOUT
      000000A8H   SFRSYM    DATA     BYTE      IE
      00000093H   SFRSYM    DATA     BYTE      TMR3RLH
      0000009CH   SFRSYM    DATA     BYTE      P3MDOUT
      000000A3H   SFRSYM    DATA     BYTE      TMR4RLH
      000000BBH   SFRSYM    DATA     BYTE      EIP1
      000000D3H   SFRSYM    DATA     BYTE      TMR5RLH
      000000EDH   SFRSYM    DATA     BYTE      EIP2
      00000098H.2 SFRSYM    DATA     BIT       SCON0_RB8
      000000CAH   SFRSYM    DATA     BYTE      TMR2RLL
      000000FCH   SFRSYM    DATA     BYTE      PCA0CPH0
      00000092H   SFRSYM    DATA     BYTE      TMR3RLL
      000000EAH   SFRSYM    DATA     BYTE      PCA0CPH1
      00000098H.3 SFRSYM    DATA     BIT       SCON0_TB8
      000000F0H   SFRSYM    DATA     BIT       B_B0
      00000082H   SFRSYM    DATA     WORD      DP
      000000A2H   SFRSYM    DATA     BYTE      TMR4RLL
      000000ECH   SFRSYM    DATA     BYTE      PCA0CPH2
      000000F0H.1 SFRSYM    DATA     BIT       B_B1
      000000C3H   SFRSYM    DATA     WORD      ADC0GT
      000000D2H   SFRSYM    DATA     BYTE      TMR5RLL
      000000F5H   SFRSYM    DATA     BYTE      PCA0CPH3
      000000BDH   SFRSYM    DATA     BYTE      I2C0SLAD
      000000D8H.3 SFRSYM    DATA     BIT       UART1FCN1_RFRQ
      000000F0H.2 SFRSYM    DATA     BIT       B_B2
      000000BCH   SFRSYM    DATA     BYTE      SFRPGCN
      000000FBH   SFRSYM    DATA     BYTE      PCA0CPL0
      00000085H   SFRSYM    DATA     BYTE      PCA0CPH4
      000000F0H.3 SFRSYM    DATA     BIT       B_B3
      000000D9H   SFRSYM    DATA     BYTE      PCA0MD
      000000DAH   SFRSYM    DATA     BYTE      PCA0CPM0
      000000E9H   SFRSYM    DATA     BYTE      PCA0CPL1
      000000DEH   SFRSYM    DATA     BYTE      PCA0CPH5
      000000D8H.7 SFRSYM    DATA     BIT       UART1FCN1_TFRQ
LX51 LINKER/LOCATER V4.66.30.0                                                        05/06/2017  23:10:53  PAGE 69


      000000F0H.4 SFRSYM    DATA     BIT       B_B4
      000000DBH   SFRSYM    DATA     BYTE      PCA0CPM1
      000000EBH   SFRSYM    DATA     BYTE      PCA0CPL2
      000000A1H   SFRSYM    DATA     BYTE      ADC0ASCF
      000000B6H   SFRSYM    DATA     BYTE      ADC0ASAH
      000000F0H.5 SFRSYM    DATA     BIT       B_B5
      000000E8H.6 SFRSYM    DATA     BIT       ADC0CN0_IPOEN
      000000E8H   SFRSYM    DATA     BIT       ADC0CN0_TEMPE
      000000DCH   SFRSYM    DATA     BYTE      PCA0CPM2
      000000F4H   SFRSYM    DATA     BYTE      PCA0CPL3
      000000B8H   SFRSYM    DATA     BYTE      IP
      000000F0H.6 SFRSYM    DATA     BIT       B_B6
      000000C5H   SFRSYM    DATA     WORD      ADC0LT
      000000AEH   SFRSYM    DATA     BYTE      PCA0CPM3
      00000084H   SFRSYM    DATA     BYTE      PCA0CPL4
      000000D8H.6 SFRSYM    DATA     BIT       UART1FCN1_TXNF
      00000098H.5 SFRSYM    DATA     BIT       SCON0_MCE
      000000F0H.7 SFRSYM    DATA     BIT       B_B7
      000000AFH   SFRSYM    DATA     BYTE      PCA0CPM4
      000000DDH   SFRSYM    DATA     BYTE      PCA0CPL5
      000000C3H   SFRSYM    DATA     BYTE      SMB0FCN0
      000000CCH   SFRSYM    DATA     BYTE      PCA0CPM5
      000000B5H   SFRSYM    DATA     BYTE      ADC0ASAL
      000000E1H   SFRSYM    DATA     BYTE      XBR0
      000000C4H   SFRSYM    DATA     BYTE      SMB0FCN1
      000000C1H   SFRSYM    DATA     BYTE      SMB0CF
      000000E2H   SFRSYM    DATA     BYTE      XBR1
      000000C1H   SFRSYM    DATA     BYTE      PFE0CN
      000000E7H   SFRSYM    DATA     BYTE      EMI0CN
      000000C0H.5 SFRSYM    DATA     BIT       SMB0CN0_STA
      000000E3H   SFRSYM    DATA     BYTE      XBR2
      000000B1H   SFRSYM    DATA     BYTE      CLU0CF
      000000BBH   SFRSYM    DATA     BYTE      ADC0MX
      000000E0H   SFRSYM    DATA     BIT       ACC_ACC0
      000000D1H   SFRSYM    DATA     BYTE      REF0CN
      000000B3H   SFRSYM    DATA     BYTE      CLU1CF
      0000008EH   SFRSYM    DATA     BYTE      CKCON0
      000000E0H.1 SFRSYM    DATA     BIT       ACC_ACC1
      000000C9H   SFRSYM    DATA     BYTE      REG0CN
      000000CAH   SFRSYM    DATA     BYTE      CRC0IN
      000000B6H   SFRSYM    DATA     BYTE      CLU2CF
      000000A6H   SFRSYM    DATA     BYTE      CKCON1
      000000C8H.2 SFRSYM    DATA     BIT       TMR2CN0_TR2
      000000E0H.2 SFRSYM    DATA     BIT       ACC_ACC2
      000000BFH   SFRSYM    DATA     BYTE      CLU3CF
      000000E0H.3 SFRSYM    DATA     BIT       ACC_ACC3
      00000081H   SFRSYM    DATA     BYTE      SP
      0000009DH   SFRSYM    DATA     BYTE      CMP0MD
      000000E0H.4 SFRSYM    DATA     BIT       ACC_ACC4
      000000B1H   SFRSYM    DATA     BYTE      LFO0CN
      000000ABH   SFRSYM    DATA     BYTE      CMP1MD
      000000D8H   SFRSYM    DATA     BIT       PCA0CN0_CCF0
      000000E0H.5 SFRSYM    DATA     BIT       ACC_ACC5
      00000098H.2 SFRSYM    DATA     BIT       TMR4CN0_TR4
      000000D8H.1 SFRSYM    DATA     BIT       PCA0CN0_CCF1
      000000E0H.6 SFRSYM    DATA     BIT       ACC_ACC6
      000000CEH   SFRSYM    DATA     WORD      TMR2
      0000009AH   SFRSYM    DATA     BYTE      SPI0FCN0
      000000C7H   SFRSYM    DATA     BYTE      ADC0ASCT
      000000D8H.2 SFRSYM    DATA     BIT       PCA0CN0_CCF2
      000000E0H.7 SFRSYM    DATA     BIT       ACC_ACC7
      00000094H   SFRSYM    DATA     WORD      TMR3
LX51 LINKER/LOCATER V4.66.30.0                                                        05/06/2017  23:10:53  PAGE 70


      0000009BH   SFRSYM    DATA     BYTE      SPI0FCN1
      000000C0H.2 SFRSYM    DATA     BIT       TMR5CN0_TR5
      000000D8H.3 SFRSYM    DATA     BIT       PCA0CN0_CCF3
      000000A4H   SFRSYM    DATA     WORD      TMR4
      00000094H   SFRSYM    DATA     BYTE      SBCON1
      000000D8H.4 SFRSYM    DATA     BIT       PCA0CN0_CCF4
      000000D4H   SFRSYM    DATA     WORD      TMR5
      000000C0H.3 SFRSYM    DATA     BIT       SMB0CN0_ACKRQ
      000000D8H.5 SFRSYM    DATA     BIT       PCA0CN0_CCF5
      000000FFH   SFRSYM    DATA     BYTE      VDM0CN
      000000F1H   SFRSYM    DATA     BYTE      P0MDIN
      000000AFH   SFRSYM    DATA     BYTE      CLU0FN
      00000098H.4 SFRSYM    DATA     BIT       SCON0_REN
      000000ACH   SFRSYM    DATA     BYTE      SMB0TC
      000000F2H   SFRSYM    DATA     BYTE      P1MDIN
      000000B2H   SFRSYM    DATA     BYTE      CLU1FN
      000000C8H.4 SFRSYM    DATA     BIT       SCON1_REN
      000000F3H   SFRSYM    DATA     BYTE      P2MDIN
      000000B5H   SFRSYM    DATA     BYTE      CLU2FN
      000000C0H.4 SFRSYM    DATA     BIT       SMB0CN0_STO
      000000F4H   SFRSYM    DATA     BYTE      P3MDIN
      000000B9H   SFRSYM    DATA     BYTE      I2C0STAT
      000000BBH   SFRSYM    DATA     BYTE      I2C0DOUT
      000000BEH   SFRSYM    DATA     BYTE      CLU3FN
      00000096H   SFRSYM    DATA     BYTE      SBRLH1
      000000FEH   SFRSYM    DATA     BYTE      P0MASK
      000000D8H.5 SFRSYM    DATA     BIT       UART1FCN1_TXHOLD
      000000EEH   SFRSYM    DATA     BYTE      P1MASK
      000000FCH   SFRSYM    DATA     BYTE      P2MASK
      000000D0H.3 SFRSYM    DATA     BIT       PSW_RS0
      000000D8H.7 SFRSYM    DATA     BIT       PCA0CN0_CF
      0000009EH   SFRSYM    DATA     BYTE      PCA0CENT
      000000BAH   SFRSYM    DATA     BYTE      I2C0CN0
      000000D2H   SFRSYM    DATA     BYTE      CRC0ST
      000000F8H.4 SFRSYM    DATA     BIT       SPI0CN0_RXOVRN
      000000D0H.4 SFRSYM    DATA     BIT       PSW_RS1
      00000095H   SFRSYM    DATA     BYTE      SBRLL1
      000000C8H.2 SFRSYM    DATA     BIT       SCON1_RBX
      00000091H   SFRSYM    DATA     BYTE      DAC0CF0
      000000BCH   SFRSYM    DATA     BYTE      ADC0CF0
      000000C8H   SFRSYM    DATA     BIT       TMR2CN0_T2XCLK0
      00000093H   SFRSYM    DATA     BYTE      DAC1CF0
      00000092H   SFRSYM    DATA     BYTE      DAC0CF1
      000000B9H   SFRSYM    DATA     BYTE      ADC0CF1
      000000C8H.1 SFRSYM    DATA     BIT       TMR2CN0_T2XCLK1
      000000C8H.3 SFRSYM    DATA     BIT       SCON1_TBX
      000000E8H.7 SFRSYM    DATA     BIT       ADC0CN0_ADEN
      00000089H   SFRSYM    DATA     BYTE      TMOD
      00000088H   SFRSYM    DATA     BYTE      TCON
      00000095H   SFRSYM    DATA     BYTE      DAC2CF0
      00000094H   SFRSYM    DATA     BYTE      DAC1CF1
      000000DFH   SFRSYM    DATA     BYTE      ADC0CF2
      0000009AH   SFRSYM    DATA     BYTE      DAC3CF0
      00000096H   SFRSYM    DATA     BYTE      DAC2CF1
      000000CFH   SFRSYM    DATA     BYTE      CRC0FLIP
      000000D0H   SFRSYM    DATA     BIT       PSW_PARITY
      000000A8H.4 SFRSYM    DATA     BIT       IE_ES0
      0000009CH   SFRSYM    DATA     BYTE      DAC3CF1
      0000009FH   SFRSYM    DATA     BYTE      CMP0MX
      00000098H   SFRSYM    DATA     BIT       TMR4CN0_T4XCLK0
      000000A8H.1 SFRSYM    DATA     BIT       IE_ET0
      000000AAH   SFRSYM    DATA     BYTE      CMP1MX
LX51 LINKER/LOCATER V4.66.30.0                                                        05/06/2017  23:10:53  PAGE 71


      00000098H.1 SFRSYM    DATA     BIT       TMR4CN0_T4XCLK1
      000000A8H.3 SFRSYM    DATA     BIT       IE_ET1
      000000D4H   SFRSYM    DATA     BYTE      P0SKIP
      000000D1H   SFRSYM    DATA     BYTE      CLOUT0
      000000D8H   SFRSYM    DATA     BIT       UART1FCN1_RIE
      000000C0H   SFRSYM    DATA     BIT       TMR5CN0_T5XCLK0
      000000A8H.5 SFRSYM    DATA     BIT       IE_ET2
      00000088H   SFRSYM    DATA     BIT       DACGCF0_D1SRC0
      000000D5H   SFRSYM    DATA     BYTE      P1SKIP
      000000C0H.1 SFRSYM    DATA     BIT       TMR5CN0_T5XCLK1
      00000088H.1 SFRSYM    DATA     BIT       DACGCF0_D1SRC1
      000000CCH   SFRSYM    DATA     BYTE      P2SKIP
      00000084H   SFRSYM    DATA     BYTE      CLU0MX
      000000E8H   SFRSYM    DATA     BYTE      ADC0CN0
      000000D8H.4 SFRSYM    DATA     BIT       UART1FCN1_TIE
      000000A8H   SFRSYM    DATA     BIT       IE_EX0
      00000088H.4 SFRSYM    DATA     BIT       DACGCF0_D3SRC0
      00000085H   SFRSYM    DATA     BYTE      CLU1MX
      000000B2H   SFRSYM    DATA     BYTE      ADC0CN1
      000000D8H.6 SFRSYM    DATA     BIT       PCA0CN0_CR
      000000A8H.2 SFRSYM    DATA     BIT       IE_EX1
      00000088H.5 SFRSYM    DATA     BIT       DACGCF0_D3SRC1
      00000091H   SFRSYM    DATA     BYTE      CLU2MX
      000000B3H   SFRSYM    DATA     BYTE      ADC0CN2
      000000C8H.7 SFRSYM    DATA     BIT       SCON1_OVR
      000000AAH   SFRSYM    DATA     BYTE      PSTAT0
      000000AEH   SFRSYM    DATA     BYTE      CLU3MX
      00000098H.7 SFRSYM    DATA     BIT       SCON0_SMODE
      000000B5H   SFRSYM    DATA     BYTE      DEVICEID
      000000A9H   SFRSYM    DATA     BYTE      CLKSEL
      000000F8H   SFRSYM    DATA     BIT       SPI0CN0_SPIEN
      00000085H   SFRSYM    DATA     BYTE      DAC0H
      000000F0H   SFRSYM    DATA     BYTE      B
      000000BEH   SFRSYM    DATA     BYTE      ADC0H
      000000FFH   SFRSYM    DATA     BYTE      I2C0ADM
      0000008AH   SFRSYM    DATA     BYTE      DAC1H
      00000088H.2 SFRSYM    DATA     BIT       DACGCF0_D1AMEN
      0000008CH   SFRSYM    DATA     BYTE      DAC2H
      0000008EH   SFRSYM    DATA     BYTE      DAC3H
      00000088H.6 SFRSYM    DATA     BIT       DACGCF0_D3AMEN
      000000CAH   SFRSYM    DATA     WORD      TMR2RL
      00000084H   SFRSYM    DATA     BYTE      DAC0L
      000000BDH   SFRSYM    DATA     BYTE      ADC0L
      00000092H   SFRSYM    DATA     WORD      TMR3RL
      00000089H   SFRSYM    DATA     BYTE      DAC1L
      000000A2H   SFRSYM    DATA     WORD      TMR4RL
      000000D8H   SFRSYM    DATA     BYTE      PCA0CN0
      0000008BH   SFRSYM    DATA     BYTE      DAC2L
      000000E0H   SFRSYM    DATA     BYTE      ACC
      000000D2H   SFRSYM    DATA     WORD      TMR5RL
      000000D9H   SFRSYM    DATA     BYTE      UART0PCF
      0000008DH   SFRSYM    DATA     BYTE      DAC3L
      000000FBH   SFRSYM    DATA     WORD      PCA0CP0
      000000DAH   SFRSYM    DATA     BYTE      UART1PCF
      000000E9H   SFRSYM    DATA     WORD      PCA0CP1
      00000088H   SFRSYM    DATA     BYTE      DACGCF0
      000000EBH   SFRSYM    DATA     WORD      PCA0CP2
      000000BCH   SFRSYM    DATA     BYTE      I2C0DIN
      00000098H   SFRSYM    DATA     BYTE      DACGCF1
      000000CEH   SFRSYM    DATA     BYTE      CRC0CN0
      000000F4H   SFRSYM    DATA     WORD      PCA0CP3
      0000008CH   SFRSYM    DATA     BYTE      TH0
LX51 LINKER/LOCATER V4.66.30.0                                                        05/06/2017  23:10:53  PAGE 72


      000000A2H   SFRSYM    DATA     BYTE      DACGCF2
      00000086H   SFRSYM    DATA     BYTE      CRC0CN1
      000000B8H.4 SFRSYM    DATA     BIT       IP_PS0
      00000084H   SFRSYM    DATA     WORD      PCA0CP4
      000000FAH   SFRSYM    DATA     BYTE      UART1FCT
      0000008DH   SFRSYM    DATA     BYTE      TH1
      000000FAH   SFRSYM    DATA     BYTE      PCA0H
      000000F5H   SFRSYM    DATA     BYTE      I2C0FCT
      000000B8H.1 SFRSYM    DATA     BIT       IP_PT0
      000000DDH   SFRSYM    DATA     WORD      PCA0CP5
      000000C7H   SFRSYM    DATA     BYTE      CLIE0
      000000B8H.3 SFRSYM    DATA     BIT       IP_PT1
      00000088H.3 SFRSYM    DATA     BIT       DACGCF0_D01REFSL
      000000B5H   SFRSYM    DATA     WORD      ADC0ASA
      000000E8H   SFRSYM    DATA     BYTE      CLIF0
      000000C0H.2 SFRSYM    DATA     BIT       SMB0CN0_ARBLOST
      000000B8H.5 SFRSYM    DATA     BIT       IP_PT2
      0000008AH   SFRSYM    DATA     BYTE      TL0
      000000D0H.5 SFRSYM    DATA     BIT       PSW_F0
      000000A8H.6 SFRSYM    DATA     BIT       IE_ESPI0
      0000008BH   SFRSYM    DATA     BYTE      TL1
      000000F9H   SFRSYM    DATA     BYTE      PCA0L
      000000C0H   SFRSYM    DATA     BIT       SMB0CN0_SI
      000000D0H.1 SFRSYM    DATA     BIT       PSW_F1
      00000080H   SFRSYM    DATA     BIT       P0_B0
      000000B8H   SFRSYM    DATA     BIT       IP_PX0
      00000090H   SFRSYM    DATA     BIT       P1_B0
      00000080H.1 SFRSYM    DATA     BIT       P0_B1
      000000B8H.2 SFRSYM    DATA     BIT       IP_PX1
      00000088H.7 SFRSYM    DATA     BIT       DACGCF0_D23REFSL
      0000009EH   SFRSYM    DATA     BYTE      UART1LIN
      0000009BH   SFRSYM    DATA     BYTE      CMP0CN0
      000000C6H   SFRSYM    DATA     BYTE      CLEN0
      00000088H.1 SFRSYM    DATA     BIT       TCON_IE0
      000000A0H   SFRSYM    DATA     BIT       P2_B0
      00000090H.1 SFRSYM    DATA     BIT       P1_B1
      00000080H.2 SFRSYM    DATA     BIT       P0_B2
      000000BFH   SFRSYM    DATA     BYTE      CMP1CN0
      00000099H   SFRSYM    DATA     BYTE      CMP0CN1
      00000088H.3 SFRSYM    DATA     BIT       TCON_IE1
      000000B0H   SFRSYM    DATA     BIT       P3_B0
      000000A0H.1 SFRSYM    DATA     BIT       P2_B1
      00000090H.2 SFRSYM    DATA     BIT       P1_B2
      00000080H.3 SFRSYM    DATA     BIT       P0_B3
      000000C0H   SFRSYM    DATA     BYTE      SMB0CN0
      000000ACH   SFRSYM    DATA     BYTE      CMP1CN1
      000000B0H.1 SFRSYM    DATA     BIT       P3_B1
      000000A0H.2 SFRSYM    DATA     BIT       P2_B2
      00000090H.3 SFRSYM    DATA     BIT       P1_B3
      00000080H.4 SFRSYM    DATA     BIT       P0_B4
      000000B0H.2 SFRSYM    DATA     BIT       P3_B2
      000000A0H.3 SFRSYM    DATA     BIT       P2_B3
      00000090H.4 SFRSYM    DATA     BIT       P1_B4
      00000080H.5 SFRSYM    DATA     BIT       P0_B5
      00000098H   SFRSYM    DATA     BIT       DACGCF1_D0UDIS
      000000D8H.1 SFRSYM    DATA     BIT       UART1FCN1_RXTO0
      000000B0H.3 SFRSYM    DATA     BIT       P3_B3
      000000A0H.4 SFRSYM    DATA     BIT       P2_B4
      00000090H.5 SFRSYM    DATA     BIT       P1_B5
      00000080H.6 SFRSYM    DATA     BIT       P0_B6
      00000098H.1 SFRSYM    DATA     BIT       DACGCF1_D1UDIS
      000000EEH   SFRSYM    DATA     BYTE      EIP1H
LX51 LINKER/LOCATER V4.66.30.0                                                        05/06/2017  23:10:53  PAGE 73


      000000D8H.2 SFRSYM    DATA     BIT       UART1FCN1_RXTO1
      000000B0H.4 SFRSYM    DATA     BIT       P3_B4
      000000A0H.5 SFRSYM    DATA     BIT       P2_B5
      00000090H.6 SFRSYM    DATA     BIT       P1_B6
      00000080H.7 SFRSYM    DATA     BIT       P0_B7
      00000098H.2 SFRSYM    DATA     BIT       DACGCF1_D2UDIS
      000000C5H   SFRSYM    DATA     BYTE      SMB0RXLN
      000000F6H   SFRSYM    DATA     BYTE      EIP2H
      000000A0H.6 SFRSYM    DATA     BIT       P2_B6
      00000090H.7 SFRSYM    DATA     BIT       P1_B7
      00000098H.3 SFRSYM    DATA     BIT       DACGCF1_D3UDIS
      000000B0H.7 SFRSYM    DATA     BIT       P3_B7
      00000083H   SFRSYM    DATA     BYTE      DPH
      000000C4H   SFRSYM    DATA     BYTE      ADC0GTH
      000000C8H.7 SFRSYM    DATA     BIT       TMR2CN0_TF2H
      000000C8H.3 SFRSYM    DATA     BIT       TMR2CN0_T2SPLIT
      000000D0H.6 SFRSYM    DATA     BIT       PSW_AC
      000000F8H   SFRSYM    DATA     BYTE      SPI0CN0
      000000C7H   SFRSYM    DATA     BYTE      HFO0CAL
      00000088H.5 SFRSYM    DATA     BIT       TCON_TF0
      00000098H   SFRSYM    DATA     BIT       SCON0_RI
      000000D6H   SFRSYM    DATA     BYTE      HFO1CAL
      00000082H   SFRSYM    DATA     BYTE      DPL
      00000088H.7 SFRSYM    DATA     BIT       TCON_TF1
      000000C8H   SFRSYM    DATA     BIT       SCON1_RI
      00000099H   SFRSYM    DATA     BYTE      SBUF0
      00000087H   SFRSYM    DATA     BYTE      PCON0
      000000F2H   SFRSYM    DATA     BYTE      IPH
      000000C3H   SFRSYM    DATA     BYTE      ADC0GTL
      00000098H.7 SFRSYM    DATA     BIT       TMR4CN0_TF4H
      00000098H.3 SFRSYM    DATA     BIT       TMR4CN0_T4SPLIT
      000000C8H.6 SFRSYM    DATA     BIT       TMR2CN0_TF2L
      00000098H.1 SFRSYM    DATA     BIT       SCON0_TI
      00000092H   SFRSYM    DATA     BYTE      SBUF1
      000000CDH   SFRSYM    DATA     BYTE      PCON1
      000000C6H   SFRSYM    DATA     BYTE      ADC0LTH
      00000088H   SFRSYM    DATA     BIT       TCON_IT0
      000000C8H.1 SFRSYM    DATA     BIT       SCON1_TI
      000000EFH   SFRSYM    DATA     BYTE      RSTSRC
      000000FDH   SFRSYM    DATA     BYTE      P0MAT
      000000CBH   SFRSYM    DATA     BYTE      CRC0DAT
      000000C0H.7 SFRSYM    DATA     BIT       TMR5CN0_TF5H
      000000C0H.3 SFRSYM    DATA     BIT       TMR5CN0_T5SPLIT
      00000088H.2 SFRSYM    DATA     BIT       TCON_IT1
      000000D7H   SFRSYM    DATA     BYTE      SFRSTACK
      00000098H   SFRSYM    DATA     BYTE      SCON0
      000000F6H   SFRSYM    DATA     BYTE      PRTDRV
      000000EDH   SFRSYM    DATA     BYTE      P1MAT
      000000E8H.3 SFRSYM    DATA     BIT       ADC0CN0_ADWINT
      00000093H   SFRSYM    DATA     BYTE      SMOD1
      000000C8H   SFRSYM    DATA     BYTE      SCON1
      000000FBH   SFRSYM    DATA     BYTE      P2MAT
      00000098H.6 SFRSYM    DATA     BIT       TMR4CN0_TF4L
      000000E8H.4 SFRSYM    DATA     BIT       ADC0CN0_ADBUSY
      000000D6H   SFRSYM    DATA     BYTE      SMB0ADM
      000000C5H   SFRSYM    DATA     BYTE      ADC0LTL
      000000F8H.5 SFRSYM    DATA     BIT       SPI0CN0_MODF
      000000B8H.6 SFRSYM    DATA     BIT       IP_PSPI0
      000000E8H.1 SFRSYM    DATA     BIT       ADC0CN0_ADGN0
      0000009CH   SFRSYM    DATA     BYTE      PCA0CLR
      000000C0H.6 SFRSYM    DATA     BIT       TMR5CN0_TF5L
      000000E8H.2 SFRSYM    DATA     BIT       ADC0CN0_ADGN1
LX51 LINKER/LOCATER V4.66.30.0                                                        05/06/2017  23:10:53  PAGE 74


      000000C8H   SFRSYM    DATA     BYTE      TMR2CN0
      00000091H   SFRSYM    DATA     BYTE      TMR3CN0
      000000FDH   SFRSYM    DATA     BYTE      TMR2CN1
      00000098H   SFRSYM    DATA     BYTE      TMR4CN0
      000000FEH   SFRSYM    DATA     BYTE      TMR3CN1
      000000C0H   SFRSYM    DATA     BYTE      TMR5CN0
      000000FFH   SFRSYM    DATA     BYTE      TMR4CN1
      000000D7H   SFRSYM    DATA     BYTE      SMB0ADR
      00000088H.4 SFRSYM    DATA     BIT       TCON_TR0
      000000F1H   SFRSYM    DATA     BYTE      TMR5CN1
      000000C8H.4 SFRSYM    DATA     BIT       TMR2CN0_TF2CEN
      00000088H.6 SFRSYM    DATA     BIT       TCON_TR1
      000000C2H   SFRSYM    DATA     BYTE      SMB0DAT
      000000CFH   SFRSYM    DATA     BYTE      TMR2H
      000000A1H   SFRSYM    DATA     BYTE      SPI0CFG
      00000095H   SFRSYM    DATA     BYTE      TMR3H
      000000EFH   SFRSYM    DATA     BYTE      HFOCN
      000000D3H   SFRSYM    DATA     BYTE      CRC0CNT
      000000A5H   SFRSYM    DATA     BYTE      TMR4H
      00000098H.4 SFRSYM    DATA     BIT       TMR4CN0_TF4CEN
      000000D5H   SFRSYM    DATA     BYTE      TMR5H
      000000EFH   SFRSYM    DATA     BYTE      SMB0FCT
      00000096H   SFRSYM    DATA     BYTE      PCA0POL
      000000CEH   SFRSYM    DATA     BYTE      TMR2L
      000000C0H.4 SFRSYM    DATA     BIT       TMR5CN0_TF5CEN
      000000F8H.7 SFRSYM    DATA     BIT       SPI0CN0_SPIF
      00000094H   SFRSYM    DATA     BYTE      TMR3L
      000000A8H.7 SFRSYM    DATA     BIT       IE_EA
      000000A4H   SFRSYM    DATA     BYTE      TMR4L
      000000D4H   SFRSYM    DATA     BYTE      TMR5L
      000000C8H.5 SFRSYM    DATA     BIT       TMR2CN0_TF2LEN
      000000F8H.6 SFRSYM    DATA     BIT       SPI0CN0_WCOL
      000000F8H.2 SFRSYM    DATA     BIT       SPI0CN0_NSSMD0
      000000D0H.7 SFRSYM    DATA     BIT       PSW_CY
      0000009DH   SFRSYM    DATA     BYTE      UART1FCN0
      000000DFH   SFRSYM    DATA     BYTE      SPI0PCF
      000000A3H   SFRSYM    DATA     BYTE      SPI0DAT
      000000ADH   SFRSYM    DATA     BYTE      I2C0FCN0
      000000F8H.3 SFRSYM    DATA     BIT       SPI0CN0_NSSMD1
      000000BDH   SFRSYM    DATA     WORD      ADC0
      000000D8H   SFRSYM    DATA     BYTE      UART1FCN1
      000000ABH   SFRSYM    DATA     BYTE      I2C0FCN1
      000000E8H   SFRSYM    DATA     BIT       CLIF0_C0FIF
      00000098H.5 SFRSYM    DATA     BIT       TMR4CN0_TF4LEN
      000000E8H.2 SFRSYM    DATA     BIT       CLIF0_C1FIF
      000000D0H   SFRSYM    DATA     BYTE      PSW
      000000F7H   SFRSYM    DATA     BYTE      PCA0PWM
      000000E8H.4 SFRSYM    DATA     BIT       CLIF0_C2FIF
      000000F7H   SFRSYM    DATA     BYTE      SPI0FCT
      000000B6H   SFRSYM    DATA     BYTE      REVID
      000000C0H.5 SFRSYM    DATA     BIT       TMR5CN0_TF5LEN
      000000E8H.6 SFRSYM    DATA     BIT       CLIF0_C3FIF
      000000B7H   SFRSYM    DATA     BYTE      FLKEY

      01002B86H   BLOCK     CODE     ---       LVL=0
      01002B86H   BLOCK     CODE     NEAR LAB  LVL=1
      0200001BH   SYMBOL    XDATA    BYTE      SFRPAGE_save
      ---         BLOCKEND  ---      ---       LVL=1
      01002B86H   LINE      CODE     ---       #23
      01002B86H   LINE      CODE     ---       #26
      01002B8CH   LINE      CODE     ---       #27
      01002B8FH   LINE      CODE     ---       #28
LX51 LINKER/LOCATER V4.66.30.0                                                        05/06/2017  23:10:53  PAGE 75


      01002B92H   LINE      CODE     ---       #29
      01002B95H   LINE      CODE     ---       #30
      01002B98H   LINE      CODE     ---       #31
      01002B9BH   LINE      CODE     ---       #32
      01002B9EH   LINE      CODE     ---       #33
      01002BA1H   LINE      CODE     ---       #34
      01002BA4H   LINE      CODE     ---       #35
      01002BA7H   LINE      CODE     ---       #36
      01002BAAH   LINE      CODE     ---       #37
      01002BADH   LINE      CODE     ---       #38
      01002BB0H   LINE      CODE     ---       #39
      01002BB3H   LINE      CODE     ---       #40
      01002BB6H   LINE      CODE     ---       #41
      01002BB9H   LINE      CODE     ---       #42
      01002BBCH   LINE      CODE     ---       #43
      01002BBFH   LINE      CODE     ---       #44
      01002BC2H   LINE      CODE     ---       #45
      01002BC5H   LINE      CODE     ---       #47
      01002BCBH   LINE      CODE     ---       #50
      ---         BLOCKEND  ---      ---       LVL=0

      01002DC3H   BLOCK     CODE     ---       LVL=0
      01002DC3H   LINE      CODE     ---       #56
      01002DC3H   LINE      CODE     ---       #58
      01002DC6H   LINE      CODE     ---       #60
      01002DC9H   LINE      CODE     ---       #61
      01002DCCH   LINE      CODE     ---       #64
      ---         BLOCKEND  ---      ---       LVL=0

      01002D80H   BLOCK     CODE     ---       LVL=0
      01002D80H   LINE      CODE     ---       #69
      01002D80H   LINE      CODE     ---       #89
      01002D83H   LINE      CODE     ---       #111
      01002D86H   LINE      CODE     ---       #136
      01002D89H   LINE      CODE     ---       #160
      01002D8CH   LINE      CODE     ---       #185
      01002D8EH   LINE      CODE     ---       #209
      01002D91H   LINE      CODE     ---       #213
      ---         BLOCKEND  ---      ---       LVL=0

      01002D92H   BLOCK     CODE     ---       LVL=0
      01002D92H   LINE      CODE     ---       #218
      01002D92H   LINE      CODE     ---       #238
      01002D95H   LINE      CODE     ---       #261
      01002D98H   LINE      CODE     ---       #286
      01002D9BH   LINE      CODE     ---       #310
      01002D9EH   LINE      CODE     ---       #335
      01002DA0H   LINE      CODE     ---       #359
      01002DA3H   LINE      CODE     ---       #363
      ---         BLOCKEND  ---      ---       LVL=0

      01002DCDH   BLOCK     CODE     ---       LVL=0
      01002DCDH   LINE      CODE     ---       #368
      01002DCDH   LINE      CODE     ---       #387
      01002DD0H   LINE      CODE     ---       #407
      01002DD3H   LINE      CODE     ---       #408
      01002DD6H   LINE      CODE     ---       #418
      ---         BLOCKEND  ---      ---       LVL=0

      01002DD7H   BLOCK     CODE     ---       LVL=0
      01002DD7H   LINE      CODE     ---       #423
      01002DD7H   LINE      CODE     ---       #437
LX51 LINKER/LOCATER V4.66.30.0                                                        05/06/2017  23:10:53  PAGE 76


      01002DDAH   LINE      CODE     ---       #438
      01002DDDH   LINE      CODE     ---       #464
      01002DE0H   LINE      CODE     ---       #472
      ---         BLOCKEND  ---      ---       LVL=0

      01000025H   BLOCK     CODE     ---       LVL=0
      01000025H   LINE      CODE     ---       #477
      01000025H   LINE      CODE     ---       #492
      01000028H   LINE      CODE     ---       #493
      0100002AH   LINE      CODE     ---       #494
      0100002AH   LINE      CODE     ---       #498
      ---         BLOCKEND  ---      ---       LVL=0

      01002D48H   BLOCK     CODE     ---       LVL=0
      01002D48H   BLOCK     CODE     NEAR LAB  LVL=1
      00000007H   SYMBOL    DATA     BYTE      TCON_save
      ---         BLOCKEND  ---      ---       LVL=1
      01002D48H   LINE      CODE     ---       #503
      01002D48H   LINE      CODE     ---       #507
      01002D4AH   LINE      CODE     ---       #509
      01002D4DH   LINE      CODE     ---       #523
      01002D50H   LINE      CODE     ---       #531
      01002D5AH   LINE      CODE     ---       #535
      ---         BLOCKEND  ---      ---       LVL=0

      01002DE1H   BLOCK     CODE     ---       LVL=0
      01002DE1H   LINE      CODE     ---       #540
      01002DE1H   LINE      CODE     ---       #556
      01002DE4H   LINE      CODE     ---       #579
      01002DE7H   LINE      CODE     ---       #587
      01002DEAH   LINE      CODE     ---       #590
      ---         BLOCKEND  ---      ---       LVL=0

      01002E05H   BLOCK     CODE     ---       LVL=0
      01002E05H   LINE      CODE     ---       #595
      01002E05H   LINE      CODE     ---       #600
      01002E08H   LINE      CODE     ---       #603
      ---         BLOCKEND  ---      ---       LVL=0

      01002E09H   BLOCK     CODE     ---       LVL=0
      01002E09H   LINE      CODE     ---       #612
      01002E09H   LINE      CODE     ---       #634
      01002E0CH   LINE      CODE     ---       #638
      ---         BLOCKEND  ---      ---       LVL=0

      01002D5BH   BLOCK     CODE     ---       LVL=0
      01002D5BH   LINE      CODE     ---       #645
      01002D5BH   LINE      CODE     ---       #656
      01002D5EH   LINE      CODE     ---       #664
      01002D61H   LINE      CODE     ---       #675
      01002D64H   LINE      CODE     ---       #684
      01002D67H   LINE      CODE     ---       #693
      01002D6AH   LINE      CODE     ---       #719
      01002D6DH   LINE      CODE     ---       #722
      ---         BLOCKEND  ---      ---       LVL=0

      01002DF3H   BLOCK     CODE     ---       LVL=0
      01002DF3H   LINE      CODE     ---       #727
      01002DF3H   LINE      CODE     ---       #739
      01002DF6H   LINE      CODE     ---       #740
      01002DF9H   LINE      CODE     ---       #747
      ---         BLOCKEND  ---      ---       LVL=0
LX51 LINKER/LOCATER V4.66.30.0                                                        05/06/2017  23:10:53  PAGE 77



      01002E0DH   BLOCK     CODE     ---       LVL=0
      01002E0DH   LINE      CODE     ---       #752
      01002E0DH   LINE      CODE     ---       #764
      01002E10H   LINE      CODE     ---       #771
      ---         BLOCKEND  ---      ---       LVL=0

      01002E11H   BLOCK     CODE     ---       LVL=0
      01002E11H   LINE      CODE     ---       #776
      01002E11H   LINE      CODE     ---       #786
      01002E14H   LINE      CODE     ---       #793
      ---         BLOCKEND  ---      ---       LVL=0

      01002DFAH   BLOCK     CODE     ---       LVL=0
      01002DFAH   LINE      CODE     ---       #798
      01002DFAH   LINE      CODE     ---       #804
      01002DFDH   LINE      CODE     ---       #805
      01002E00H   LINE      CODE     ---       #808
      ---         BLOCKEND  ---      ---       LVL=0

      01002CD6H   BLOCK     CODE     ---       LVL=0
      01002CD6H   BLOCK     CODE     NEAR LAB  LVL=1
      00000007H   SYMBOL    DATA     BYTE      TMR3CN0_TR3_save
      ---         BLOCKEND  ---      ---       LVL=1
      01002CD6H   LINE      CODE     ---       #820
      01002CD6H   LINE      CODE     ---       #824
      01002CDAH   LINE      CODE     ---       #826
      01002CDDH   LINE      CODE     ---       #839
      01002CE0H   LINE      CODE     ---       #846
      01002CE3H   LINE      CODE     ---       #853
      01002CE6H   LINE      CODE     ---       #860
      01002CE9H   LINE      CODE     ---       #867
      01002CECH   LINE      CODE     ---       #872
      01002CEEH   LINE      CODE     ---       #875
      ---         BLOCKEND  ---      ---       LVL=0

      01000003H   BLOCK     CODE     ---       LVL=0
      01000003H   BLOCK     CODE     NEAR LAB  LVL=1
      00000007H   SYMBOL    DATA     BYTE      TMR4CN0_TR4_save
      ---         BLOCKEND  ---      ---       LVL=1
      01000003H   LINE      CODE     ---       #880
      01000003H   LINE      CODE     ---       #884
      01000006H   LINE      CODE     ---       #885
      0100000AH   LINE      CODE     ---       #887
      0100000DH   LINE      CODE     ---       #900
      01000010H   LINE      CODE     ---       #907
      01000013H   LINE      CODE     ---       #914
      01000016H   LINE      CODE     ---       #921
      01000019H   LINE      CODE     ---       #924
      0100001FH   LINE      CODE     ---       #929
      01000022H   LINE      CODE     ---       #934
      01000024H   LINE      CODE     ---       #937
      ---         BLOCKEND  ---      ---       LVL=0

      01000036H   BLOCK     CODE     ---       LVL=0
      01000036H   LINE      CODE     ---       #944
      01000036H   LINE      CODE     ---       #949
      01000039H   LINE      CODE     ---       #957
      0100003CH   LINE      CODE     ---       #969
      0100003FH   LINE      CODE     ---       #970
      01000042H   LINE      CODE     ---       #973
      ---         BLOCKEND  ---      ---       LVL=0
LX51 LINKER/LOCATER V4.66.30.0                                                        05/06/2017  23:10:53  PAGE 78



      01002D1EH   BLOCK     CODE     ---       LVL=0
      01002D1EH   LINE      CODE     ---       #978
      01002D1EH   LINE      CODE     ---       #998
      01002D21H   LINE      CODE     ---       #1015
      01002D24H   LINE      CODE     ---       #1038
      01002D27H   LINE      CODE     ---       #1039
      01002D2AH   LINE      CODE     ---       #1060
      01002D2DH   LINE      CODE     ---       #1084
      01002D30H   LINE      CODE     ---       #1085
      01002D33H   LINE      CODE     ---       #1096
      ---         BLOCKEND  ---      ---       LVL=0

      ---         MODULE    ---      ---       ?C_STARTUP
      01000000H   PUBLIC    CODE     NEAR LAB  ?C_STARTUP
      000000E0H   SFRSYM    DATA     BYTE      ACC
      000000F0H   SFRSYM    DATA     BYTE      B
      00000083H   SFRSYM    DATA     BYTE      DPH
      00000082H   SFRSYM    DATA     BYTE      DPL
      000000A0H   SFRSYM    DATA     BYTE      PPAGE_SFR
      00000081H   SFRSYM    DATA     BYTE      SP
      00000000H   SYMBOL    NUMBER   ---       IBPSTACK
      00000100H   SYMBOL    NUMBER   ---       IBPSTACKTOP
      00000080H   SYMBOL    NUMBER   ---       IDATALEN
      01002859H   SYMBOL    CODE     NEAR LAB  IDATALOOP
      00000000H   SYMBOL    NUMBER   ---       PBPSTACK
      00000100H   SYMBOL    NUMBER   ---       PBPSTACKTOP
      00000000H   SYMBOL    NUMBER   ---       PDATALEN
      00000000H   SYMBOL    NUMBER   ---       PDATASTART
      00000000H   SYMBOL    NUMBER   ---       PPAGE
      00000000H   SYMBOL    NUMBER   ---       PPAGEENABLE
      01002856H   SYMBOL    CODE     NEAR LAB  STARTUP1
      00000000H   SYMBOL    NUMBER   ---       XBPSTACK
      00010000H   SYMBOL    NUMBER   ---       XBPSTACKTOP
      00000000H   SYMBOL    NUMBER   ---       XDATALEN
      00000000H   SYMBOL    NUMBER   ---       XDATASTART

      01000000H   BLOCK     CODE     NEAR LAB  LVL=0
      01000000H   LINE      CODE     ---       #126
      ---         BLOCKEND  ---      ---       LVL=0

      01002856H   BLOCK     CODE     NEAR LAB  LVL=0
      01002856H   LINE      CODE     ---       #138
      01002858H   LINE      CODE     ---       #139
      01002859H   LINE      CODE     ---       #140
      0100285AH   LINE      CODE     ---       #141
      0100285CH   LINE      CODE     ---       #190
      0100285FH   LINE      CODE     ---       #201
      ---         BLOCKEND  ---      ---       LVL=0

      ---         MODULE    ---      ---       FUNCTION_GENERATOR
      020000DEH   PUBLIC    XDATA    BYTE      killSplashFlag
      020000CCH   PUBLIC    XDATA    ---       Line
      01001F19H   PUBLIC    CODE     ---       windowedSineTable
      01001D19H   PUBLIC    CODE     ---       sawtoothTable
      01001B19H   PUBLIC    CODE     ---       triangleTable
      01001919H   PUBLIC    CODE     ---       squareTable
      01001719H   PUBLIC    CODE     ---       sineTable
      01000046H   PUBLIC    CODE     ---       PMATCH_ISR
      01002A19H   PUBLIC    CODE     ---       TIMER4_ISR
      01002C10H   PUBLIC    CODE     ---       drawCharacter
      000000A2H   SFRSYM    DATA     BYTE      SPI0CKR
LX51 LINKER/LOCATER V4.66.30.0                                                        05/06/2017  23:10:53  PAGE 79


      00000080H   SFRSYM    DATA     BYTE      P0
      000000C8H.6 SFRSYM    DATA     BIT       SCON1_PERR
      000000D0H.2 SFRSYM    DATA     BIT       PSW_OV
      00000086H   SFRSYM    DATA     BYTE      XOSC0CN
      00000090H   SFRSYM    DATA     BYTE      P1
      000000F8H.1 SFRSYM    DATA     BIT       SPI0CN0_TXNF
      00000097H   SFRSYM    DATA     BYTE      WDTCN
      000000A0H   SFRSYM    DATA     BYTE      P2
      000000B0H   SFRSYM    DATA     BYTE      P3
      000000C0H.7 SFRSYM    DATA     BIT       SMB0CN0_MASTER
      000000F9H   SFRSYM    DATA     WORD      PCA0
      000000E6H   SFRSYM    DATA     BYTE      EIE1
      000000C0H.1 SFRSYM    DATA     BIT       SMB0CN0_ACK
      000000E8H.1 SFRSYM    DATA     BIT       CLIF0_C0RIF
      000000F3H   SFRSYM    DATA     BYTE      EIE2
      000000E8H.3 SFRSYM    DATA     BIT       CLIF0_C1RIF
      000000E8H.5 SFRSYM    DATA     BIT       CLIF0_C2RIF
      0000008FH   SFRSYM    DATA     BYTE      PSCTL
      00000080H.2 SFRSYM    DATA     BIT       BSP_PB0
      000000E8H.7 SFRSYM    DATA     BIT       CLIF0_C3RIF
      000000E4H   SFRSYM    DATA     BYTE      IT01CF
      00000080H.3 SFRSYM    DATA     BIT       BSP_PB1
      000000C0H.6 SFRSYM    DATA     BIT       SMB0CN0_TXMODE
      000000ADH   SFRSYM    DATA     BYTE      DERIVID
      000000A7H   SFRSYM    DATA     BYTE      SFRPAGE
      000000A4H   SFRSYM    DATA     BYTE      P0MDOUT
      000000A5H   SFRSYM    DATA     BYTE      P1MDOUT
      000000E8H.5 SFRSYM    DATA     BIT       ADC0CN0_ADINT
      000000CBH   SFRSYM    DATA     BYTE      TMR2RLH
      000000A6H   SFRSYM    DATA     BYTE      P2MDOUT
      000000A8H   SFRSYM    DATA     BYTE      IE
      00000093H   SFRSYM    DATA     BYTE      TMR3RLH
      0000009CH   SFRSYM    DATA     BYTE      P3MDOUT
      000000A3H   SFRSYM    DATA     BYTE      TMR4RLH
      000000BBH   SFRSYM    DATA     BYTE      EIP1
      000000D3H   SFRSYM    DATA     BYTE      TMR5RLH
      000000EDH   SFRSYM    DATA     BYTE      EIP2
      00000098H.2 SFRSYM    DATA     BIT       SCON0_RB8
      000000CAH   SFRSYM    DATA     BYTE      TMR2RLL
      000000FCH   SFRSYM    DATA     BYTE      PCA0CPH0
      00000092H   SFRSYM    DATA     BYTE      TMR3RLL
      000000EAH   SFRSYM    DATA     BYTE      PCA0CPH1
      00000098H.3 SFRSYM    DATA     BIT       SCON0_TB8
      000000F0H   SFRSYM    DATA     BIT       B_B0
      00000082H   SFRSYM    DATA     WORD      DP
      000000A2H   SFRSYM    DATA     BYTE      TMR4RLL
      000000ECH   SFRSYM    DATA     BYTE      PCA0CPH2
      000000F0H.1 SFRSYM    DATA     BIT       B_B1
      000000C3H   SFRSYM    DATA     WORD      ADC0GT
      000000D2H   SFRSYM    DATA     BYTE      TMR5RLL
      000000F5H   SFRSYM    DATA     BYTE      PCA0CPH3
      000000BDH   SFRSYM    DATA     BYTE      I2C0SLAD
      000000D8H.3 SFRSYM    DATA     BIT       UART1FCN1_RFRQ
      000000F0H.2 SFRSYM    DATA     BIT       B_B2
      000000BCH   SFRSYM    DATA     BYTE      SFRPGCN
      000000FBH   SFRSYM    DATA     BYTE      PCA0CPL0
      00000085H   SFRSYM    DATA     BYTE      PCA0CPH4
      000000F0H.3 SFRSYM    DATA     BIT       B_B3
      000000D9H   SFRSYM    DATA     BYTE      PCA0MD
      000000DAH   SFRSYM    DATA     BYTE      PCA0CPM0
      000000E9H   SFRSYM    DATA     BYTE      PCA0CPL1
      000000DEH   SFRSYM    DATA     BYTE      PCA0CPH5
LX51 LINKER/LOCATER V4.66.30.0                                                        05/06/2017  23:10:53  PAGE 80


      000000D8H.7 SFRSYM    DATA     BIT       UART1FCN1_TFRQ
      000000F0H.4 SFRSYM    DATA     BIT       B_B4
      000000DBH   SFRSYM    DATA     BYTE      PCA0CPM1
      000000EBH   SFRSYM    DATA     BYTE      PCA0CPL2
      000000A1H   SFRSYM    DATA     BYTE      ADC0ASCF
      000000B6H   SFRSYM    DATA     BYTE      ADC0ASAH
      000000F0H.5 SFRSYM    DATA     BIT       B_B5
      000000E8H.6 SFRSYM    DATA     BIT       ADC0CN0_IPOEN
      000000E8H   SFRSYM    DATA     BIT       ADC0CN0_TEMPE
      000000DCH   SFRSYM    DATA     BYTE      PCA0CPM2
      000000F4H   SFRSYM    DATA     BYTE      PCA0CPL3
      000000B8H   SFRSYM    DATA     BYTE      IP
      000000F0H.6 SFRSYM    DATA     BIT       B_B6
      000000C5H   SFRSYM    DATA     WORD      ADC0LT
      000000AEH   SFRSYM    DATA     BYTE      PCA0CPM3
      00000084H   SFRSYM    DATA     BYTE      PCA0CPL4
      000000D8H.6 SFRSYM    DATA     BIT       UART1FCN1_TXNF
      00000098H.5 SFRSYM    DATA     BIT       SCON0_MCE
      000000F0H.7 SFRSYM    DATA     BIT       B_B7
      000000AFH   SFRSYM    DATA     BYTE      PCA0CPM4
      000000DDH   SFRSYM    DATA     BYTE      PCA0CPL5
      000000C3H   SFRSYM    DATA     BYTE      SMB0FCN0
      000000CCH   SFRSYM    DATA     BYTE      PCA0CPM5
      000000B5H   SFRSYM    DATA     BYTE      ADC0ASAL
      000000E1H   SFRSYM    DATA     BYTE      XBR0
      000000C4H   SFRSYM    DATA     BYTE      SMB0FCN1
      000000C1H   SFRSYM    DATA     BYTE      SMB0CF
      000000E2H   SFRSYM    DATA     BYTE      XBR1
      000000C1H   SFRSYM    DATA     BYTE      PFE0CN
      000000E7H   SFRSYM    DATA     BYTE      EMI0CN
      000000C0H.5 SFRSYM    DATA     BIT       SMB0CN0_STA
      000000E3H   SFRSYM    DATA     BYTE      XBR2
      000000B1H   SFRSYM    DATA     BYTE      CLU0CF
      000000BBH   SFRSYM    DATA     BYTE      ADC0MX
      000000E0H   SFRSYM    DATA     BIT       ACC_ACC0
      000000D1H   SFRSYM    DATA     BYTE      REF0CN
      000000B3H   SFRSYM    DATA     BYTE      CLU1CF
      0000008EH   SFRSYM    DATA     BYTE      CKCON0
      000000E0H.1 SFRSYM    DATA     BIT       ACC_ACC1
      000000C9H   SFRSYM    DATA     BYTE      REG0CN
      000000CAH   SFRSYM    DATA     BYTE      CRC0IN
      000000B6H   SFRSYM    DATA     BYTE      CLU2CF
      000000A6H   SFRSYM    DATA     BYTE      CKCON1
      000000C8H.2 SFRSYM    DATA     BIT       TMR2CN0_TR2
      000000E0H.2 SFRSYM    DATA     BIT       ACC_ACC2
      000000BFH   SFRSYM    DATA     BYTE      CLU3CF
      000000E0H.3 SFRSYM    DATA     BIT       ACC_ACC3
      00000081H   SFRSYM    DATA     BYTE      SP
      0000009DH   SFRSYM    DATA     BYTE      CMP0MD
      000000E0H.4 SFRSYM    DATA     BIT       ACC_ACC4
      000000B1H   SFRSYM    DATA     BYTE      LFO0CN
      000000ABH   SFRSYM    DATA     BYTE      CMP1MD
      000000D8H   SFRSYM    DATA     BIT       PCA0CN0_CCF0
      000000E0H.5 SFRSYM    DATA     BIT       ACC_ACC5
      00000098H.2 SFRSYM    DATA     BIT       TMR4CN0_TR4
      000000D8H.1 SFRSYM    DATA     BIT       PCA0CN0_CCF1
      000000E0H.6 SFRSYM    DATA     BIT       ACC_ACC6
      000000CEH   SFRSYM    DATA     WORD      TMR2
      0000009AH   SFRSYM    DATA     BYTE      SPI0FCN0
      000000C7H   SFRSYM    DATA     BYTE      ADC0ASCT
      000000D8H.2 SFRSYM    DATA     BIT       PCA0CN0_CCF2
      000000E0H.7 SFRSYM    DATA     BIT       ACC_ACC7
LX51 LINKER/LOCATER V4.66.30.0                                                        05/06/2017  23:10:53  PAGE 81


      00000094H   SFRSYM    DATA     WORD      TMR3
      0000009BH   SFRSYM    DATA     BYTE      SPI0FCN1
      000000C0H.2 SFRSYM    DATA     BIT       TMR5CN0_TR5
      000000D8H.3 SFRSYM    DATA     BIT       PCA0CN0_CCF3
      000000A4H   SFRSYM    DATA     WORD      TMR4
      00000094H   SFRSYM    DATA     BYTE      SBCON1
      000000D8H.4 SFRSYM    DATA     BIT       PCA0CN0_CCF4
      000000D4H   SFRSYM    DATA     WORD      TMR5
      000000C0H.3 SFRSYM    DATA     BIT       SMB0CN0_ACKRQ
      000000D8H.5 SFRSYM    DATA     BIT       PCA0CN0_CCF5
      000000FFH   SFRSYM    DATA     BYTE      VDM0CN
      000000F1H   SFRSYM    DATA     BYTE      P0MDIN
      000000AFH   SFRSYM    DATA     BYTE      CLU0FN
      00000098H.4 SFRSYM    DATA     BIT       SCON0_REN
      000000ACH   SFRSYM    DATA     BYTE      SMB0TC
      000000F2H   SFRSYM    DATA     BYTE      P1MDIN
      000000B2H   SFRSYM    DATA     BYTE      CLU1FN
      000000C8H.4 SFRSYM    DATA     BIT       SCON1_REN
      000000F3H   SFRSYM    DATA     BYTE      P2MDIN
      000000B5H   SFRSYM    DATA     BYTE      CLU2FN
      000000C0H.4 SFRSYM    DATA     BIT       SMB0CN0_STO
      000000F4H   SFRSYM    DATA     BYTE      P3MDIN
      000000B9H   SFRSYM    DATA     BYTE      I2C0STAT
      000000BBH   SFRSYM    DATA     BYTE      I2C0DOUT
      000000BEH   SFRSYM    DATA     BYTE      CLU3FN
      00000096H   SFRSYM    DATA     BYTE      SBRLH1
      000000FEH   SFRSYM    DATA     BYTE      P0MASK
      000000D8H.5 SFRSYM    DATA     BIT       UART1FCN1_TXHOLD
      000000EEH   SFRSYM    DATA     BYTE      P1MASK
      000000FCH   SFRSYM    DATA     BYTE      P2MASK
      000000D0H.3 SFRSYM    DATA     BIT       PSW_RS0
      000000D8H.7 SFRSYM    DATA     BIT       PCA0CN0_CF
      0000009EH   SFRSYM    DATA     BYTE      PCA0CENT
      000000BAH   SFRSYM    DATA     BYTE      I2C0CN0
      000000D2H   SFRSYM    DATA     BYTE      CRC0ST
      000000F8H.4 SFRSYM    DATA     BIT       SPI0CN0_RXOVRN
      000000D0H.4 SFRSYM    DATA     BIT       PSW_RS1
      00000095H   SFRSYM    DATA     BYTE      SBRLL1
      000000C8H.2 SFRSYM    DATA     BIT       SCON1_RBX
      00000091H   SFRSYM    DATA     BYTE      DAC0CF0
      000000BCH   SFRSYM    DATA     BYTE      ADC0CF0
      000000C8H   SFRSYM    DATA     BIT       TMR2CN0_T2XCLK0
      00000093H   SFRSYM    DATA     BYTE      DAC1CF0
      00000092H   SFRSYM    DATA     BYTE      DAC0CF1
      000000B9H   SFRSYM    DATA     BYTE      ADC0CF1
      000000C8H.1 SFRSYM    DATA     BIT       TMR2CN0_T2XCLK1
      000000C8H.3 SFRSYM    DATA     BIT       SCON1_TBX
      000000E8H.7 SFRSYM    DATA     BIT       ADC0CN0_ADEN
      00000089H   SFRSYM    DATA     BYTE      TMOD
      00000088H   SFRSYM    DATA     BYTE      TCON
      00000095H   SFRSYM    DATA     BYTE      DAC2CF0
      00000094H   SFRSYM    DATA     BYTE      DAC1CF1
      000000DFH   SFRSYM    DATA     BYTE      ADC0CF2
      0000009AH   SFRSYM    DATA     BYTE      DAC3CF0
      00000096H   SFRSYM    DATA     BYTE      DAC2CF1
      000000CFH   SFRSYM    DATA     BYTE      CRC0FLIP
      000000D0H   SFRSYM    DATA     BIT       PSW_PARITY
      000000A8H.4 SFRSYM    DATA     BIT       IE_ES0
      0000009CH   SFRSYM    DATA     BYTE      DAC3CF1
      0000009FH   SFRSYM    DATA     BYTE      CMP0MX
      00000098H   SFRSYM    DATA     BIT       TMR4CN0_T4XCLK0
      000000A8H.1 SFRSYM    DATA     BIT       IE_ET0
LX51 LINKER/LOCATER V4.66.30.0                                                        05/06/2017  23:10:53  PAGE 82


      000000AAH   SFRSYM    DATA     BYTE      CMP1MX
      00000098H.1 SFRSYM    DATA     BIT       TMR4CN0_T4XCLK1
      000000A8H.3 SFRSYM    DATA     BIT       IE_ET1
      000000D4H   SFRSYM    DATA     BYTE      P0SKIP
      000000D1H   SFRSYM    DATA     BYTE      CLOUT0
      00000090H.7 SFRSYM    DATA     BIT       BSP_JOYSTICK
      000000D8H   SFRSYM    DATA     BIT       UART1FCN1_RIE
      000000C0H   SFRSYM    DATA     BIT       TMR5CN0_T5XCLK0
      000000A8H.5 SFRSYM    DATA     BIT       IE_ET2
      00000088H   SFRSYM    DATA     BIT       DACGCF0_D1SRC0
      000000D5H   SFRSYM    DATA     BYTE      P1SKIP
      000000C0H.1 SFRSYM    DATA     BIT       TMR5CN0_T5XCLK1
      00000088H.1 SFRSYM    DATA     BIT       DACGCF0_D1SRC1
      000000CCH   SFRSYM    DATA     BYTE      P2SKIP
      00000084H   SFRSYM    DATA     BYTE      CLU0MX
      000000E8H   SFRSYM    DATA     BYTE      ADC0CN0
      000000D8H.4 SFRSYM    DATA     BIT       UART1FCN1_TIE
      000000A8H   SFRSYM    DATA     BIT       IE_EX0
      00000088H.4 SFRSYM    DATA     BIT       DACGCF0_D3SRC0
      00000085H   SFRSYM    DATA     BYTE      CLU1MX
      000000B2H   SFRSYM    DATA     BYTE      ADC0CN1
      000000D8H.6 SFRSYM    DATA     BIT       PCA0CN0_CR
      000000A8H.2 SFRSYM    DATA     BIT       IE_EX1
      00000088H.5 SFRSYM    DATA     BIT       DACGCF0_D3SRC1
      00000091H   SFRSYM    DATA     BYTE      CLU2MX
      000000B3H   SFRSYM    DATA     BYTE      ADC0CN2
      00000090H.5 SFRSYM    DATA     BIT       BSP_LED_B
      000000C8H.7 SFRSYM    DATA     BIT       SCON1_OVR
      000000AAH   SFRSYM    DATA     BYTE      PSTAT0
      000000AEH   SFRSYM    DATA     BYTE      CLU3MX
      000000A0H.2 SFRSYM    DATA     BIT       BSP_BC_EN
      00000098H.7 SFRSYM    DATA     BIT       SCON0_SMODE
      000000B5H   SFRSYM    DATA     BYTE      DEVICEID
      000000A9H   SFRSYM    DATA     BYTE      CLKSEL
      000000F8H   SFRSYM    DATA     BIT       SPI0CN0_SPIEN
      00000085H   SFRSYM    DATA     BYTE      DAC0H
      000000F0H   SFRSYM    DATA     BYTE      B
      000000BEH   SFRSYM    DATA     BYTE      ADC0H
      000000FFH   SFRSYM    DATA     BYTE      I2C0ADM
      0000008AH   SFRSYM    DATA     BYTE      DAC1H
      00000090H.4 SFRSYM    DATA     BIT       BSP_LED_G
      00000088H.2 SFRSYM    DATA     BIT       DACGCF0_D1AMEN
      0000008CH   SFRSYM    DATA     BYTE      DAC2H
      0000008EH   SFRSYM    DATA     BYTE      DAC3H
      00000088H.6 SFRSYM    DATA     BIT       DACGCF0_D3AMEN
      000000CAH   SFRSYM    DATA     WORD      TMR2RL
      00000084H   SFRSYM    DATA     BYTE      DAC0L
      000000BDH   SFRSYM    DATA     BYTE      ADC0L
      00000092H   SFRSYM    DATA     WORD      TMR3RL
      00000089H   SFRSYM    DATA     BYTE      DAC1L
      000000A2H   SFRSYM    DATA     WORD      TMR4RL
      000000D8H   SFRSYM    DATA     BYTE      PCA0CN0
      0000008BH   SFRSYM    DATA     BYTE      DAC2L
      000000E0H   SFRSYM    DATA     BYTE      ACC
      000000D2H   SFRSYM    DATA     WORD      TMR5RL
      000000D9H   SFRSYM    DATA     BYTE      UART0PCF
      0000008DH   SFRSYM    DATA     BYTE      DAC3L
      000000FBH   SFRSYM    DATA     WORD      PCA0CP0
      000000DAH   SFRSYM    DATA     BYTE      UART1PCF
      000000E9H   SFRSYM    DATA     WORD      PCA0CP1
      00000088H   SFRSYM    DATA     BYTE      DACGCF0
      000000EBH   SFRSYM    DATA     WORD      PCA0CP2
LX51 LINKER/LOCATER V4.66.30.0                                                        05/06/2017  23:10:53  PAGE 83


      000000BCH   SFRSYM    DATA     BYTE      I2C0DIN
      00000098H   SFRSYM    DATA     BYTE      DACGCF1
      000000CEH   SFRSYM    DATA     BYTE      CRC0CN0
      000000F4H   SFRSYM    DATA     WORD      PCA0CP3
      0000008CH   SFRSYM    DATA     BYTE      TH0
      000000A2H   SFRSYM    DATA     BYTE      DACGCF2
      00000086H   SFRSYM    DATA     BYTE      CRC0CN1
      000000B8H.4 SFRSYM    DATA     BIT       IP_PS0
      00000084H   SFRSYM    DATA     WORD      PCA0CP4
      000000FAH   SFRSYM    DATA     BYTE      UART1FCT
      0000008DH   SFRSYM    DATA     BYTE      TH1
      000000FAH   SFRSYM    DATA     BYTE      PCA0H
      000000F5H   SFRSYM    DATA     BYTE      I2C0FCT
      00000090H.6 SFRSYM    DATA     BIT       BSP_LED_R
      000000B8H.1 SFRSYM    DATA     BIT       IP_PT0
      000000DDH   SFRSYM    DATA     WORD      PCA0CP5
      000000C7H   SFRSYM    DATA     BYTE      CLIE0
      000000B8H.3 SFRSYM    DATA     BIT       IP_PT1
      00000088H.3 SFRSYM    DATA     BIT       DACGCF0_D01REFSL
      000000B5H   SFRSYM    DATA     WORD      ADC0ASA
      000000E8H   SFRSYM    DATA     BYTE      CLIF0
      000000C0H.2 SFRSYM    DATA     BIT       SMB0CN0_ARBLOST
      000000B8H.5 SFRSYM    DATA     BIT       IP_PT2
      0000008AH   SFRSYM    DATA     BYTE      TL0
      000000D0H.5 SFRSYM    DATA     BIT       PSW_F0
      000000A8H.6 SFRSYM    DATA     BIT       IE_ESPI0
      0000008BH   SFRSYM    DATA     BYTE      TL1
      000000F9H   SFRSYM    DATA     BYTE      PCA0L
      000000C0H   SFRSYM    DATA     BIT       SMB0CN0_SI
      000000D0H.1 SFRSYM    DATA     BIT       PSW_F1
      00000080H   SFRSYM    DATA     BIT       P0_B0
      000000B8H   SFRSYM    DATA     BIT       IP_PX0
      00000090H   SFRSYM    DATA     BIT       P1_B0
      00000080H.1 SFRSYM    DATA     BIT       P0_B1
      000000B8H.2 SFRSYM    DATA     BIT       IP_PX1
      00000088H.7 SFRSYM    DATA     BIT       DACGCF0_D23REFSL
      0000009EH   SFRSYM    DATA     BYTE      UART1LIN
      0000009BH   SFRSYM    DATA     BYTE      CMP0CN0
      000000C6H   SFRSYM    DATA     BYTE      CLEN0
      00000088H.1 SFRSYM    DATA     BIT       TCON_IE0
      000000A0H   SFRSYM    DATA     BIT       P2_B0
      00000090H.1 SFRSYM    DATA     BIT       P1_B1
      00000080H.2 SFRSYM    DATA     BIT       P0_B2
      000000BFH   SFRSYM    DATA     BYTE      CMP1CN0
      00000099H   SFRSYM    DATA     BYTE      CMP0CN1
      00000088H.3 SFRSYM    DATA     BIT       TCON_IE1
      000000B0H   SFRSYM    DATA     BIT       P3_B0
      000000A0H.1 SFRSYM    DATA     BIT       P2_B1
      00000090H.2 SFRSYM    DATA     BIT       P1_B2
      00000080H.3 SFRSYM    DATA     BIT       P0_B3
      000000C0H   SFRSYM    DATA     BYTE      SMB0CN0
      000000ACH   SFRSYM    DATA     BYTE      CMP1CN1
      000000B0H.1 SFRSYM    DATA     BIT       P3_B1
      000000A0H.2 SFRSYM    DATA     BIT       P2_B2
      00000090H.3 SFRSYM    DATA     BIT       P1_B3
      00000080H.4 SFRSYM    DATA     BIT       P0_B4
      000000B0H.2 SFRSYM    DATA     BIT       P3_B2
      000000A0H.3 SFRSYM    DATA     BIT       P2_B3
      00000090H.4 SFRSYM    DATA     BIT       P1_B4
      00000080H.5 SFRSYM    DATA     BIT       P0_B5
      00000098H   SFRSYM    DATA     BIT       DACGCF1_D0UDIS
      000000D8H.1 SFRSYM    DATA     BIT       UART1FCN1_RXTO0
LX51 LINKER/LOCATER V4.66.30.0                                                        05/06/2017  23:10:53  PAGE 84


      000000B0H.3 SFRSYM    DATA     BIT       P3_B3
      000000A0H.4 SFRSYM    DATA     BIT       P2_B4
      00000090H.5 SFRSYM    DATA     BIT       P1_B5
      00000080H.6 SFRSYM    DATA     BIT       P0_B6
      00000098H.1 SFRSYM    DATA     BIT       DACGCF1_D1UDIS
      000000EEH   SFRSYM    DATA     BYTE      EIP1H
      000000D8H.2 SFRSYM    DATA     BIT       UART1FCN1_RXTO1
      000000B0H.4 SFRSYM    DATA     BIT       P3_B4
      000000A0H.5 SFRSYM    DATA     BIT       P2_B5
      00000090H.6 SFRSYM    DATA     BIT       P1_B6
      00000080H.7 SFRSYM    DATA     BIT       P0_B7
      00000098H.2 SFRSYM    DATA     BIT       DACGCF1_D2UDIS
      000000C5H   SFRSYM    DATA     BYTE      SMB0RXLN
      000000F6H   SFRSYM    DATA     BYTE      EIP2H
      000000A0H.6 SFRSYM    DATA     BIT       P2_B6
      00000090H.7 SFRSYM    DATA     BIT       P1_B7
      00000098H.3 SFRSYM    DATA     BIT       DACGCF1_D3UDIS
      000000B0H.7 SFRSYM    DATA     BIT       P3_B7
      00000083H   SFRSYM    DATA     BYTE      DPH
      000000C4H   SFRSYM    DATA     BYTE      ADC0GTH
      000000C8H.7 SFRSYM    DATA     BIT       TMR2CN0_TF2H
      000000C8H.3 SFRSYM    DATA     BIT       TMR2CN0_T2SPLIT
      000000D0H.6 SFRSYM    DATA     BIT       PSW_AC
      000000F8H   SFRSYM    DATA     BYTE      SPI0CN0
      000000C7H   SFRSYM    DATA     BYTE      HFO0CAL
      00000088H.5 SFRSYM    DATA     BIT       TCON_TF0
      00000098H   SFRSYM    DATA     BIT       SCON0_RI
      000000D6H   SFRSYM    DATA     BYTE      HFO1CAL
      00000082H   SFRSYM    DATA     BYTE      DPL
      00000088H.7 SFRSYM    DATA     BIT       TCON_TF1
      000000C8H   SFRSYM    DATA     BIT       SCON1_RI
      00000099H   SFRSYM    DATA     BYTE      SBUF0
      00000087H   SFRSYM    DATA     BYTE      PCON0
      000000F2H   SFRSYM    DATA     BYTE      IPH
      000000C3H   SFRSYM    DATA     BYTE      ADC0GTL
      00000098H.7 SFRSYM    DATA     BIT       TMR4CN0_TF4H
      00000098H.3 SFRSYM    DATA     BIT       TMR4CN0_T4SPLIT
      000000C8H.6 SFRSYM    DATA     BIT       TMR2CN0_TF2L
      00000098H.1 SFRSYM    DATA     BIT       SCON0_TI
      00000092H   SFRSYM    DATA     BYTE      SBUF1
      000000CDH   SFRSYM    DATA     BYTE      PCON1
      000000C6H   SFRSYM    DATA     BYTE      ADC0LTH
      00000088H   SFRSYM    DATA     BIT       TCON_IT0
      000000C8H.1 SFRSYM    DATA     BIT       SCON1_TI
      000000EFH   SFRSYM    DATA     BYTE      RSTSRC
      000000FDH   SFRSYM    DATA     BYTE      P0MAT
      000000CBH   SFRSYM    DATA     BYTE      CRC0DAT
      000000C0H.7 SFRSYM    DATA     BIT       TMR5CN0_TF5H
      000000C0H.3 SFRSYM    DATA     BIT       TMR5CN0_T5SPLIT
      00000088H.2 SFRSYM    DATA     BIT       TCON_IT1
      000000D7H   SFRSYM    DATA     BYTE      SFRSTACK
      00000098H   SFRSYM    DATA     BYTE      SCON0
      000000F6H   SFRSYM    DATA     BYTE      PRTDRV
      000000EDH   SFRSYM    DATA     BYTE      P1MAT
      000000E8H.3 SFRSYM    DATA     BIT       ADC0CN0_ADWINT
      00000093H   SFRSYM    DATA     BYTE      SMOD1
      000000C8H   SFRSYM    DATA     BYTE      SCON1
      000000FBH   SFRSYM    DATA     BYTE      P2MAT
      00000098H.6 SFRSYM    DATA     BIT       TMR4CN0_TF4L
      000000E8H.4 SFRSYM    DATA     BIT       ADC0CN0_ADBUSY
      000000D6H   SFRSYM    DATA     BYTE      SMB0ADM
      000000C5H   SFRSYM    DATA     BYTE      ADC0LTL
LX51 LINKER/LOCATER V4.66.30.0                                                        05/06/2017  23:10:53  PAGE 85


      000000F8H.5 SFRSYM    DATA     BIT       SPI0CN0_MODF
      000000B8H.6 SFRSYM    DATA     BIT       IP_PSPI0
      000000E8H.1 SFRSYM    DATA     BIT       ADC0CN0_ADGN0
      0000009CH   SFRSYM    DATA     BYTE      PCA0CLR
      000000C0H.6 SFRSYM    DATA     BIT       TMR5CN0_TF5L
      000000E8H.2 SFRSYM    DATA     BIT       ADC0CN0_ADGN1
      000000C8H   SFRSYM    DATA     BYTE      TMR2CN0
      00000091H   SFRSYM    DATA     BYTE      TMR3CN0
      000000FDH   SFRSYM    DATA     BYTE      TMR2CN1
      00000098H   SFRSYM    DATA     BYTE      TMR4CN0
      000000FEH   SFRSYM    DATA     BYTE      TMR3CN1
      000000B0H.4 SFRSYM    DATA     BIT       BSP_DISP_EN
      000000C0H   SFRSYM    DATA     BYTE      TMR5CN0
      000000FFH   SFRSYM    DATA     BYTE      TMR4CN1
      000000D7H   SFRSYM    DATA     BYTE      SMB0ADR
      00000088H.4 SFRSYM    DATA     BIT       TCON_TR0
      000000F1H   SFRSYM    DATA     BYTE      TMR5CN1
      000000C8H.4 SFRSYM    DATA     BIT       TMR2CN0_TF2CEN
      00000088H.6 SFRSYM    DATA     BIT       TCON_TR1
      000000C2H   SFRSYM    DATA     BYTE      SMB0DAT
      000000A0H.6 SFRSYM    DATA     BIT       BSP_DISP_CS
      000000CFH   SFRSYM    DATA     BYTE      TMR2H
      000000A1H   SFRSYM    DATA     BYTE      SPI0CFG
      00000095H   SFRSYM    DATA     BYTE      TMR3H
      000000EFH   SFRSYM    DATA     BYTE      HFOCN
      000000D3H   SFRSYM    DATA     BYTE      CRC0CNT
      000000A5H   SFRSYM    DATA     BYTE      TMR4H
      00000098H.4 SFRSYM    DATA     BIT       TMR4CN0_TF4CEN
      000000D5H   SFRSYM    DATA     BYTE      TMR5H
      000000EFH   SFRSYM    DATA     BYTE      SMB0FCT
      00000096H   SFRSYM    DATA     BYTE      PCA0POL
      000000CEH   SFRSYM    DATA     BYTE      TMR2L
      000000C0H.4 SFRSYM    DATA     BIT       TMR5CN0_TF5CEN
      000000F8H.7 SFRSYM    DATA     BIT       SPI0CN0_SPIF
      00000094H   SFRSYM    DATA     BYTE      TMR3L
      000000A8H.7 SFRSYM    DATA     BIT       IE_EA
      000000A4H   SFRSYM    DATA     BYTE      TMR4L
      000000D4H   SFRSYM    DATA     BYTE      TMR5L
      000000C8H.5 SFRSYM    DATA     BIT       TMR2CN0_TF2LEN
      000000F8H.6 SFRSYM    DATA     BIT       SPI0CN0_WCOL
      000000F8H.2 SFRSYM    DATA     BIT       SPI0CN0_NSSMD0
      000000D0H.7 SFRSYM    DATA     BIT       PSW_CY
      0000009DH   SFRSYM    DATA     BYTE      UART1FCN0
      000000DFH   SFRSYM    DATA     BYTE      SPI0PCF
      000000A3H   SFRSYM    DATA     BYTE      SPI0DAT
      000000ADH   SFRSYM    DATA     BYTE      I2C0FCN0
      000000F8H.3 SFRSYM    DATA     BIT       SPI0CN0_NSSMD1
      000000BDH   SFRSYM    DATA     WORD      ADC0
      000000D8H   SFRSYM    DATA     BYTE      UART1FCN1
      000000ABH   SFRSYM    DATA     BYTE      I2C0FCN1
      000000E8H   SFRSYM    DATA     BIT       CLIF0_C0FIF
      00000098H.5 SFRSYM    DATA     BIT       TMR4CN0_TF4LEN
      000000E8H.2 SFRSYM    DATA     BIT       CLIF0_C1FIF
      000000D0H   SFRSYM    DATA     BYTE      PSW
      000000F7H   SFRSYM    DATA     BYTE      PCA0PWM
      000000E8H.4 SFRSYM    DATA     BIT       CLIF0_C2FIF
      000000F7H   SFRSYM    DATA     BYTE      SPI0FCT
      000000B6H   SFRSYM    DATA     BYTE      REVID
      000000C0H.5 SFRSYM    DATA     BIT       TMR5CN0_TF5LEN
      000000E8H.6 SFRSYM    DATA     BIT       CLIF0_C3FIF
      000000B7H   SFRSYM    DATA     BYTE      FLKEY
      020000CAH   SYMBOL    XDATA    WORD      phaseOffset
LX51 LINKER/LOCATER V4.66.30.0                                                        05/06/2017  23:10:53  PAGE 86


      010000FFH   SYMBOL    CODE     ---       thinfont_bits
      0100133FH   SYMBOL    CODE     ---       windowed_sine_bits
      01000F77H   SYMBOL    CODE     ---       sawtooth_bits
      020000DCH   SYMBOL    XDATA    BYTE      currentFreqIndex
      020000DDH   SYMBOL    XDATA    BYTE      currentDemoState
      01001707H   SYMBOL    CODE     ---       nav_up_bits
      010007E7H   SYMBOL    CODE     ---       square_bits
      01002AD9H   SYMBOL    CODE     ---       _drawScreenText
      0100041FH   SYMBOL    CODE     ---       sine_bits
      020000DFH   SYMBOL    XDATA    ---       currentWaveform
      020000E1H   SYMBOL    XDATA    ---       frequency
      01001714H   SYMBOL    CODE     ---       nav_right_bits
      0100170FH   SYMBOL    CODE     ---       nav_left_bits
      01000BAFH   SYMBOL    CODE     ---       triangle_bits
      020000F1H   SYMBOL    XDATA    ---       currentTable
      0100170BH   SYMBOL    CODE     ---       nav_down_bits
      00000007H   SYMBOL    DATA     BYTE      dir
      00000007H   SYMBOL    DATA     BYTE      dir
      00000004H   SYMBOL    DATA     DWORD     mv
      00000007H   SYMBOL    DATA     BYTE      dir
      00000007H   SYMBOL    DATA     BYTE      dir
      00000007H   SYMBOL    DATA     BYTE      dir

      01002AD9H   BLOCK     CODE     ---       LVL=0
      0200009CH   SYMBOL    XDATA    ---       str
      0200009FH   SYMBOL    XDATA    BYTE      rowNum
      01002AE7H   BLOCK     CODE     NEAR LAB  LVL=1
      020000A0H   SYMBOL    XDATA    BYTE      i
      ---         BLOCKEND  ---      ---       LVL=1
      01002AD9H   LINE      CODE     ---       #303
      01002AE7H   LINE      CODE     ---       #304
      01002AE7H   LINE      CODE     ---       #307
      01002AEAH   LINE      CODE     ---       #308
      01002AEAH   LINE      CODE     ---       #309
      01002AF1H   LINE      CODE     ---       #310
      01002B14H   LINE      CODE     ---       #311
      01002B28H   LINE      CODE     ---       #312
      01002B34H   LINE      CODE     ---       #313
      ---         BLOCKEND  ---      ---       LVL=0

      01002C10H   BLOCK     CODE     ---       LVL=0
      01002C10H   BLOCK     CODE     NEAR LAB  LVL=1
      0200001BH   SYMBOL    XDATA    BYTE      inputcharacter
      0200001CH   SYMBOL    XDATA    ---       input
      ---         BLOCKEND  ---      ---       LVL=1
      01002C10H   LINE      CODE     ---       #315
      01002C10H   LINE      CODE     ---       #316
      01002C10H   LINE      CODE     ---       #317
      01002C10H   LINE      CODE     ---       #318
      01002C10H   LINE      CODE     ---       #321
      01002C18H   LINE      CODE     ---       #322
      01002C25H   LINE      CODE     ---       #323
      01002C44H   LINE      CODE     ---       #324
      01002C4FH   LINE      CODE     ---       #325
      ---         BLOCKEND  ---      ---       LVL=0
      020000C6H   SYMBOL    XDATA    WORD      lastTick
      00000006H   SYMBOL    DATA     WORD      tick

      01002A19H   BLOCK     CODE     ---       LVL=0
      01002A24H   BLOCK     CODE     NEAR LAB  LVL=1
      020000C8H   SYMBOL    XDATA    WORD      phaseAcc
      020000C4H   SYMBOL    XDATA    ---       temp
LX51 LINKER/LOCATER V4.66.30.0                                                        05/06/2017  23:10:53  PAGE 87


      ---         BLOCKEND  ---      ---       LVL=1
      01002A19H   LINE      CODE     ---       #468
      01002A24H   LINE      CODE     ---       #476
      01002A27H   LINE      CODE     ---       #478
      01002A3BH   LINE      CODE     ---       #481
      01002A5EH   LINE      CODE     ---       #487
      01002A61H   LINE      CODE     ---       #489
      01002A69H   LINE      CODE     ---       #490
      01002A71H   LINE      CODE     ---       #491
      ---         BLOCKEND  ---      ---       LVL=0

      01000046H   BLOCK     CODE     ---       LVL=0
      01000053H   BLOCK     CODE     NEAR LAB  LVL=1
      00000007H   SYMBOL    DATA     BYTE      SFRPAGE_save
      ---         BLOCKEND  ---      ---       LVL=1
      01000046H   LINE      CODE     ---       #502
      01000053H   LINE      CODE     ---       #504
      01000055H   LINE      CODE     ---       #507
      0100005BH   LINE      CODE     ---       #508
      0100005BH   LINE      CODE     ---       #509
      01000060H   LINE      CODE     ---       #510
      01000060H   LINE      CODE     ---       #512
      01000063H   LINE      CODE     ---       #514
      01000066H   LINE      CODE     ---       #518
      01000068H   LINE      CODE     ---       #519
      ---         BLOCKEND  ---      ---       LVL=0

      ---         MODULE    ---      ---       MAIN
      01002DB5H   PUBLIC    CODE     ---       main
      000000A2H   SFRSYM    DATA     BYTE      SPI0CKR
      00000080H   SFRSYM    DATA     BYTE      P0
      000000C8H.6 SFRSYM    DATA     BIT       SCON1_PERR
      000000D0H.2 SFRSYM    DATA     BIT       PSW_OV
      00000086H   SFRSYM    DATA     BYTE      XOSC0CN
      00000090H   SFRSYM    DATA     BYTE      P1
      000000F8H.1 SFRSYM    DATA     BIT       SPI0CN0_TXNF
      00000097H   SFRSYM    DATA     BYTE      WDTCN
      000000A0H   SFRSYM    DATA     BYTE      P2
      000000B0H   SFRSYM    DATA     BYTE      P3
      000000C0H.7 SFRSYM    DATA     BIT       SMB0CN0_MASTER
      000000F9H   SFRSYM    DATA     WORD      PCA0
      000000E6H   SFRSYM    DATA     BYTE      EIE1
      000000C0H.1 SFRSYM    DATA     BIT       SMB0CN0_ACK
      000000E8H.1 SFRSYM    DATA     BIT       CLIF0_C0RIF
      000000F3H   SFRSYM    DATA     BYTE      EIE2
      000000E8H.3 SFRSYM    DATA     BIT       CLIF0_C1RIF
      000000E8H.5 SFRSYM    DATA     BIT       CLIF0_C2RIF
      0000008FH   SFRSYM    DATA     BYTE      PSCTL
      000000E8H.7 SFRSYM    DATA     BIT       CLIF0_C3RIF
      000000E4H   SFRSYM    DATA     BYTE      IT01CF
      000000C0H.6 SFRSYM    DATA     BIT       SMB0CN0_TXMODE
      000000ADH   SFRSYM    DATA     BYTE      DERIVID
      000000A7H   SFRSYM    DATA     BYTE      SFRPAGE
      000000A4H   SFRSYM    DATA     BYTE      P0MDOUT
      000000A5H   SFRSYM    DATA     BYTE      P1MDOUT
      000000E8H.5 SFRSYM    DATA     BIT       ADC0CN0_ADINT
      000000CBH   SFRSYM    DATA     BYTE      TMR2RLH
      000000A6H   SFRSYM    DATA     BYTE      P2MDOUT
      000000A8H   SFRSYM    DATA     BYTE      IE
      00000093H   SFRSYM    DATA     BYTE      TMR3RLH
      0000009CH   SFRSYM    DATA     BYTE      P3MDOUT
      000000A3H   SFRSYM    DATA     BYTE      TMR4RLH
LX51 LINKER/LOCATER V4.66.30.0                                                        05/06/2017  23:10:53  PAGE 88


      000000BBH   SFRSYM    DATA     BYTE      EIP1
      000000D3H   SFRSYM    DATA     BYTE      TMR5RLH
      000000EDH   SFRSYM    DATA     BYTE      EIP2
      00000098H.2 SFRSYM    DATA     BIT       SCON0_RB8
      000000CAH   SFRSYM    DATA     BYTE      TMR2RLL
      000000FCH   SFRSYM    DATA     BYTE      PCA0CPH0
      00000092H   SFRSYM    DATA     BYTE      TMR3RLL
      000000EAH   SFRSYM    DATA     BYTE      PCA0CPH1
      00000098H.3 SFRSYM    DATA     BIT       SCON0_TB8
      000000F0H   SFRSYM    DATA     BIT       B_B0
      00000082H   SFRSYM    DATA     WORD      DP
      000000A2H   SFRSYM    DATA     BYTE      TMR4RLL
      000000ECH   SFRSYM    DATA     BYTE      PCA0CPH2
      000000F0H.1 SFRSYM    DATA     BIT       B_B1
      000000C3H   SFRSYM    DATA     WORD      ADC0GT
      000000D2H   SFRSYM    DATA     BYTE      TMR5RLL
      000000F5H   SFRSYM    DATA     BYTE      PCA0CPH3
      000000BDH   SFRSYM    DATA     BYTE      I2C0SLAD
      000000D8H.3 SFRSYM    DATA     BIT       UART1FCN1_RFRQ
      000000F0H.2 SFRSYM    DATA     BIT       B_B2
      000000BCH   SFRSYM    DATA     BYTE      SFRPGCN
      000000FBH   SFRSYM    DATA     BYTE      PCA0CPL0
      00000085H   SFRSYM    DATA     BYTE      PCA0CPH4
      000000F0H.3 SFRSYM    DATA     BIT       B_B3
      000000D9H   SFRSYM    DATA     BYTE      PCA0MD
      000000DAH   SFRSYM    DATA     BYTE      PCA0CPM0
      000000E9H   SFRSYM    DATA     BYTE      PCA0CPL1
      000000DEH   SFRSYM    DATA     BYTE      PCA0CPH5
      000000D8H.7 SFRSYM    DATA     BIT       UART1FCN1_TFRQ
      000000F0H.4 SFRSYM    DATA     BIT       B_B4
      000000DBH   SFRSYM    DATA     BYTE      PCA0CPM1
      000000EBH   SFRSYM    DATA     BYTE      PCA0CPL2
      000000A1H   SFRSYM    DATA     BYTE      ADC0ASCF
      000000B6H   SFRSYM    DATA     BYTE      ADC0ASAH
      000000F0H.5 SFRSYM    DATA     BIT       B_B5
      000000E8H.6 SFRSYM    DATA     BIT       ADC0CN0_IPOEN
      000000E8H   SFRSYM    DATA     BIT       ADC0CN0_TEMPE
      000000DCH   SFRSYM    DATA     BYTE      PCA0CPM2
      000000F4H   SFRSYM    DATA     BYTE      PCA0CPL3
      000000B8H   SFRSYM    DATA     BYTE      IP
      000000F0H.6 SFRSYM    DATA     BIT       B_B6
      000000C5H   SFRSYM    DATA     WORD      ADC0LT
      000000AEH   SFRSYM    DATA     BYTE      PCA0CPM3
      00000084H   SFRSYM    DATA     BYTE      PCA0CPL4
      000000D8H.6 SFRSYM    DATA     BIT       UART1FCN1_TXNF
      00000098H.5 SFRSYM    DATA     BIT       SCON0_MCE
      000000F0H.7 SFRSYM    DATA     BIT       B_B7
      000000AFH   SFRSYM    DATA     BYTE      PCA0CPM4
      000000DDH   SFRSYM    DATA     BYTE      PCA0CPL5
      000000C3H   SFRSYM    DATA     BYTE      SMB0FCN0
      000000CCH   SFRSYM    DATA     BYTE      PCA0CPM5
      000000B5H   SFRSYM    DATA     BYTE      ADC0ASAL
      000000E1H   SFRSYM    DATA     BYTE      XBR0
      000000C4H   SFRSYM    DATA     BYTE      SMB0FCN1
      000000C1H   SFRSYM    DATA     BYTE      SMB0CF
      000000E2H   SFRSYM    DATA     BYTE      XBR1
      000000C1H   SFRSYM    DATA     BYTE      PFE0CN
      000000E7H   SFRSYM    DATA     BYTE      EMI0CN
      000000C0H.5 SFRSYM    DATA     BIT       SMB0CN0_STA
      000000E3H   SFRSYM    DATA     BYTE      XBR2
      000000B1H   SFRSYM    DATA     BYTE      CLU0CF
      000000BBH   SFRSYM    DATA     BYTE      ADC0MX
LX51 LINKER/LOCATER V4.66.30.0                                                        05/06/2017  23:10:53  PAGE 89


      000000E0H   SFRSYM    DATA     BIT       ACC_ACC0
      000000D1H   SFRSYM    DATA     BYTE      REF0CN
      000000B3H   SFRSYM    DATA     BYTE      CLU1CF
      0000008EH   SFRSYM    DATA     BYTE      CKCON0
      000000E0H.1 SFRSYM    DATA     BIT       ACC_ACC1
      000000C9H   SFRSYM    DATA     BYTE      REG0CN
      000000CAH   SFRSYM    DATA     BYTE      CRC0IN
      000000B6H   SFRSYM    DATA     BYTE      CLU2CF
      000000A6H   SFRSYM    DATA     BYTE      CKCON1
      000000C8H.2 SFRSYM    DATA     BIT       TMR2CN0_TR2
      000000E0H.2 SFRSYM    DATA     BIT       ACC_ACC2
      000000BFH   SFRSYM    DATA     BYTE      CLU3CF
      000000E0H.3 SFRSYM    DATA     BIT       ACC_ACC3
      00000081H   SFRSYM    DATA     BYTE      SP
      0000009DH   SFRSYM    DATA     BYTE      CMP0MD
      000000E0H.4 SFRSYM    DATA     BIT       ACC_ACC4
      000000B1H   SFRSYM    DATA     BYTE      LFO0CN
      000000ABH   SFRSYM    DATA     BYTE      CMP1MD
      000000B0H.4 SFRSYM    DATA     BIT       DISP_EN
      000000D8H   SFRSYM    DATA     BIT       PCA0CN0_CCF0
      000000E0H.5 SFRSYM    DATA     BIT       ACC_ACC5
      00000098H.2 SFRSYM    DATA     BIT       TMR4CN0_TR4
      000000D8H.1 SFRSYM    DATA     BIT       PCA0CN0_CCF1
      000000E0H.6 SFRSYM    DATA     BIT       ACC_ACC6
      000000CEH   SFRSYM    DATA     WORD      TMR2
      0000009AH   SFRSYM    DATA     BYTE      SPI0FCN0
      000000C7H   SFRSYM    DATA     BYTE      ADC0ASCT
      000000D8H.2 SFRSYM    DATA     BIT       PCA0CN0_CCF2
      000000E0H.7 SFRSYM    DATA     BIT       ACC_ACC7
      00000094H   SFRSYM    DATA     WORD      TMR3
      0000009BH   SFRSYM    DATA     BYTE      SPI0FCN1
      000000C0H.2 SFRSYM    DATA     BIT       TMR5CN0_TR5
      000000D8H.3 SFRSYM    DATA     BIT       PCA0CN0_CCF3
      000000A4H   SFRSYM    DATA     WORD      TMR4
      00000094H   SFRSYM    DATA     BYTE      SBCON1
      000000D8H.4 SFRSYM    DATA     BIT       PCA0CN0_CCF4
      000000D4H   SFRSYM    DATA     WORD      TMR5
      000000C0H.3 SFRSYM    DATA     BIT       SMB0CN0_ACKRQ
      000000D8H.5 SFRSYM    DATA     BIT       PCA0CN0_CCF5
      000000FFH   SFRSYM    DATA     BYTE      VDM0CN
      000000F1H   SFRSYM    DATA     BYTE      P0MDIN
      000000AFH   SFRSYM    DATA     BYTE      CLU0FN
      00000098H.4 SFRSYM    DATA     BIT       SCON0_REN
      000000ACH   SFRSYM    DATA     BYTE      SMB0TC
      000000F2H   SFRSYM    DATA     BYTE      P1MDIN
      000000B2H   SFRSYM    DATA     BYTE      CLU1FN
      000000C8H.4 SFRSYM    DATA     BIT       SCON1_REN
      000000F3H   SFRSYM    DATA     BYTE      P2MDIN
      000000B5H   SFRSYM    DATA     BYTE      CLU2FN
      000000C0H.4 SFRSYM    DATA     BIT       SMB0CN0_STO
      000000F4H   SFRSYM    DATA     BYTE      P3MDIN
      000000B9H   SFRSYM    DATA     BYTE      I2C0STAT
      000000BBH   SFRSYM    DATA     BYTE      I2C0DOUT
      000000BEH   SFRSYM    DATA     BYTE      CLU3FN
      00000096H   SFRSYM    DATA     BYTE      SBRLH1
      000000FEH   SFRSYM    DATA     BYTE      P0MASK
      000000D8H.5 SFRSYM    DATA     BIT       UART1FCN1_TXHOLD
      000000EEH   SFRSYM    DATA     BYTE      P1MASK
      000000FCH   SFRSYM    DATA     BYTE      P2MASK
      000000D0H.3 SFRSYM    DATA     BIT       PSW_RS0
      000000D8H.7 SFRSYM    DATA     BIT       PCA0CN0_CF
      0000009EH   SFRSYM    DATA     BYTE      PCA0CENT
LX51 LINKER/LOCATER V4.66.30.0                                                        05/06/2017  23:10:53  PAGE 90


      000000BAH   SFRSYM    DATA     BYTE      I2C0CN0
      000000D2H   SFRSYM    DATA     BYTE      CRC0ST
      000000F8H.4 SFRSYM    DATA     BIT       SPI0CN0_RXOVRN
      000000D0H.4 SFRSYM    DATA     BIT       PSW_RS1
      00000095H   SFRSYM    DATA     BYTE      SBRLL1
      000000C8H.2 SFRSYM    DATA     BIT       SCON1_RBX
      00000091H   SFRSYM    DATA     BYTE      DAC0CF0
      000000BCH   SFRSYM    DATA     BYTE      ADC0CF0
      000000C8H   SFRSYM    DATA     BIT       TMR2CN0_T2XCLK0
      00000093H   SFRSYM    DATA     BYTE      DAC1CF0
      00000092H   SFRSYM    DATA     BYTE      DAC0CF1
      000000B9H   SFRSYM    DATA     BYTE      ADC0CF1
      000000C8H.1 SFRSYM    DATA     BIT       TMR2CN0_T2XCLK1
      000000C8H.3 SFRSYM    DATA     BIT       SCON1_TBX
      000000E8H.7 SFRSYM    DATA     BIT       ADC0CN0_ADEN
      00000089H   SFRSYM    DATA     BYTE      TMOD
      00000088H   SFRSYM    DATA     BYTE      TCON
      00000095H   SFRSYM    DATA     BYTE      DAC2CF0
      00000094H   SFRSYM    DATA     BYTE      DAC1CF1
      000000DFH   SFRSYM    DATA     BYTE      ADC0CF2
      0000009AH   SFRSYM    DATA     BYTE      DAC3CF0
      00000096H   SFRSYM    DATA     BYTE      DAC2CF1
      000000CFH   SFRSYM    DATA     BYTE      CRC0FLIP
      000000D0H   SFRSYM    DATA     BIT       PSW_PARITY
      000000A8H.4 SFRSYM    DATA     BIT       IE_ES0
      0000009CH   SFRSYM    DATA     BYTE      DAC3CF1
      0000009FH   SFRSYM    DATA     BYTE      CMP0MX
      00000098H   SFRSYM    DATA     BIT       TMR4CN0_T4XCLK0
      000000A8H.1 SFRSYM    DATA     BIT       IE_ET0
      000000AAH   SFRSYM    DATA     BYTE      CMP1MX
      00000098H.1 SFRSYM    DATA     BIT       TMR4CN0_T4XCLK1
      000000A8H.3 SFRSYM    DATA     BIT       IE_ET1
      000000D4H   SFRSYM    DATA     BYTE      P0SKIP
      000000D1H   SFRSYM    DATA     BYTE      CLOUT0
      000000D8H   SFRSYM    DATA     BIT       UART1FCN1_RIE
      000000C0H   SFRSYM    DATA     BIT       TMR5CN0_T5XCLK0
      000000A8H.5 SFRSYM    DATA     BIT       IE_ET2
      00000088H   SFRSYM    DATA     BIT       DACGCF0_D1SRC0
      000000D5H   SFRSYM    DATA     BYTE      P1SKIP
      000000C0H.1 SFRSYM    DATA     BIT       TMR5CN0_T5XCLK1
      00000088H.1 SFRSYM    DATA     BIT       DACGCF0_D1SRC1
      000000CCH   SFRSYM    DATA     BYTE      P2SKIP
      00000084H   SFRSYM    DATA     BYTE      CLU0MX
      000000E8H   SFRSYM    DATA     BYTE      ADC0CN0
      000000D8H.4 SFRSYM    DATA     BIT       UART1FCN1_TIE
      000000A8H   SFRSYM    DATA     BIT       IE_EX0
      00000088H.4 SFRSYM    DATA     BIT       DACGCF0_D3SRC0
      00000085H   SFRSYM    DATA     BYTE      CLU1MX
      000000B2H   SFRSYM    DATA     BYTE      ADC0CN1
      000000D8H.6 SFRSYM    DATA     BIT       PCA0CN0_CR
      000000A8H.2 SFRSYM    DATA     BIT       IE_EX1
      00000088H.5 SFRSYM    DATA     BIT       DACGCF0_D3SRC1
      00000091H   SFRSYM    DATA     BYTE      CLU2MX
      000000B3H   SFRSYM    DATA     BYTE      ADC0CN2
      000000C8H.7 SFRSYM    DATA     BIT       SCON1_OVR
      000000AAH   SFRSYM    DATA     BYTE      PSTAT0
      000000AEH   SFRSYM    DATA     BYTE      CLU3MX
      00000098H.7 SFRSYM    DATA     BIT       SCON0_SMODE
      000000B5H   SFRSYM    DATA     BYTE      DEVICEID
      000000A9H   SFRSYM    DATA     BYTE      CLKSEL
      000000F8H   SFRSYM    DATA     BIT       SPI0CN0_SPIEN
      00000085H   SFRSYM    DATA     BYTE      DAC0H
LX51 LINKER/LOCATER V4.66.30.0                                                        05/06/2017  23:10:53  PAGE 91


      000000F0H   SFRSYM    DATA     BYTE      B
      000000BEH   SFRSYM    DATA     BYTE      ADC0H
      000000FFH   SFRSYM    DATA     BYTE      I2C0ADM
      0000008AH   SFRSYM    DATA     BYTE      DAC1H
      00000088H.2 SFRSYM    DATA     BIT       DACGCF0_D1AMEN
      0000008CH   SFRSYM    DATA     BYTE      DAC2H
      0000008EH   SFRSYM    DATA     BYTE      DAC3H
      00000088H.6 SFRSYM    DATA     BIT       DACGCF0_D3AMEN
      000000CAH   SFRSYM    DATA     WORD      TMR2RL
      00000084H   SFRSYM    DATA     BYTE      DAC0L
      000000BDH   SFRSYM    DATA     BYTE      ADC0L
      00000092H   SFRSYM    DATA     WORD      TMR3RL
      00000089H   SFRSYM    DATA     BYTE      DAC1L
      000000A2H   SFRSYM    DATA     WORD      TMR4RL
      000000D8H   SFRSYM    DATA     BYTE      PCA0CN0
      0000008BH   SFRSYM    DATA     BYTE      DAC2L
      000000E0H   SFRSYM    DATA     BYTE      ACC
      000000D2H   SFRSYM    DATA     WORD      TMR5RL
      000000D9H   SFRSYM    DATA     BYTE      UART0PCF
      0000008DH   SFRSYM    DATA     BYTE      DAC3L
      000000FBH   SFRSYM    DATA     WORD      PCA0CP0
      000000DAH   SFRSYM    DATA     BYTE      UART1PCF
      000000E9H   SFRSYM    DATA     WORD      PCA0CP1
      00000088H   SFRSYM    DATA     BYTE      DACGCF0
      000000EBH   SFRSYM    DATA     WORD      PCA0CP2
      000000BCH   SFRSYM    DATA     BYTE      I2C0DIN
      00000098H   SFRSYM    DATA     BYTE      DACGCF1
      000000CEH   SFRSYM    DATA     BYTE      CRC0CN0
      000000F4H   SFRSYM    DATA     WORD      PCA0CP3
      0000008CH   SFRSYM    DATA     BYTE      TH0
      000000A2H   SFRSYM    DATA     BYTE      DACGCF2
      00000086H   SFRSYM    DATA     BYTE      CRC0CN1
      000000B8H.4 SFRSYM    DATA     BIT       IP_PS0
      00000084H   SFRSYM    DATA     WORD      PCA0CP4
      000000FAH   SFRSYM    DATA     BYTE      UART1FCT
      0000008DH   SFRSYM    DATA     BYTE      TH1
      000000FAH   SFRSYM    DATA     BYTE      PCA0H
      000000F5H   SFRSYM    DATA     BYTE      I2C0FCT
      000000B8H.1 SFRSYM    DATA     BIT       IP_PT0
      000000DDH   SFRSYM    DATA     WORD      PCA0CP5
      000000C7H   SFRSYM    DATA     BYTE      CLIE0
      000000B8H.3 SFRSYM    DATA     BIT       IP_PT1
      00000088H.3 SFRSYM    DATA     BIT       DACGCF0_D01REFSL
      000000B5H   SFRSYM    DATA     WORD      ADC0ASA
      000000E8H   SFRSYM    DATA     BYTE      CLIF0
      000000C0H.2 SFRSYM    DATA     BIT       SMB0CN0_ARBLOST
      000000B8H.5 SFRSYM    DATA     BIT       IP_PT2
      0000008AH   SFRSYM    DATA     BYTE      TL0
      000000D0H.5 SFRSYM    DATA     BIT       PSW_F0
      000000A8H.6 SFRSYM    DATA     BIT       IE_ESPI0
      0000008BH   SFRSYM    DATA     BYTE      TL1
      000000F9H   SFRSYM    DATA     BYTE      PCA0L
      000000C0H   SFRSYM    DATA     BIT       SMB0CN0_SI
      000000D0H.1 SFRSYM    DATA     BIT       PSW_F1
      00000080H   SFRSYM    DATA     BIT       P0_B0
      000000B8H   SFRSYM    DATA     BIT       IP_PX0
      00000090H   SFRSYM    DATA     BIT       P1_B0
      00000080H.1 SFRSYM    DATA     BIT       P0_B1
      000000B8H.2 SFRSYM    DATA     BIT       IP_PX1
      00000088H.7 SFRSYM    DATA     BIT       DACGCF0_D23REFSL
      0000009EH   SFRSYM    DATA     BYTE      UART1LIN
      0000009BH   SFRSYM    DATA     BYTE      CMP0CN0
LX51 LINKER/LOCATER V4.66.30.0                                                        05/06/2017  23:10:53  PAGE 92


      000000C6H   SFRSYM    DATA     BYTE      CLEN0
      00000088H.1 SFRSYM    DATA     BIT       TCON_IE0
      000000A0H   SFRSYM    DATA     BIT       P2_B0
      00000090H.1 SFRSYM    DATA     BIT       P1_B1
      00000080H.2 SFRSYM    DATA     BIT       P0_B2
      000000BFH   SFRSYM    DATA     BYTE      CMP1CN0
      00000099H   SFRSYM    DATA     BYTE      CMP0CN1
      00000088H.3 SFRSYM    DATA     BIT       TCON_IE1
      000000B0H   SFRSYM    DATA     BIT       P3_B0
      000000A0H.1 SFRSYM    DATA     BIT       P2_B1
      00000090H.2 SFRSYM    DATA     BIT       P1_B2
      00000080H.3 SFRSYM    DATA     BIT       P0_B3
      000000C0H   SFRSYM    DATA     BYTE      SMB0CN0
      000000ACH   SFRSYM    DATA     BYTE      CMP1CN1
      000000B0H.1 SFRSYM    DATA     BIT       P3_B1
      000000A0H.2 SFRSYM    DATA     BIT       P2_B2
      00000090H.3 SFRSYM    DATA     BIT       P1_B3
      00000080H.4 SFRSYM    DATA     BIT       P0_B4
      000000B0H.2 SFRSYM    DATA     BIT       P3_B2
      000000A0H.3 SFRSYM    DATA     BIT       P2_B3
      00000090H.4 SFRSYM    DATA     BIT       P1_B4
      00000080H.5 SFRSYM    DATA     BIT       P0_B5
      00000098H   SFRSYM    DATA     BIT       DACGCF1_D0UDIS
      000000D8H.1 SFRSYM    DATA     BIT       UART1FCN1_RXTO0
      000000B0H.3 SFRSYM    DATA     BIT       P3_B3
      000000A0H.4 SFRSYM    DATA     BIT       P2_B4
      00000090H.5 SFRSYM    DATA     BIT       P1_B5
      00000080H.6 SFRSYM    DATA     BIT       P0_B6
      00000098H.1 SFRSYM    DATA     BIT       DACGCF1_D1UDIS
      000000EEH   SFRSYM    DATA     BYTE      EIP1H
      000000D8H.2 SFRSYM    DATA     BIT       UART1FCN1_RXTO1
      000000B0H.4 SFRSYM    DATA     BIT       P3_B4
      000000A0H.5 SFRSYM    DATA     BIT       P2_B5
      00000090H.6 SFRSYM    DATA     BIT       P1_B6
      00000080H.7 SFRSYM    DATA     BIT       P0_B7
      00000098H.2 SFRSYM    DATA     BIT       DACGCF1_D2UDIS
      000000C5H   SFRSYM    DATA     BYTE      SMB0RXLN
      000000F6H   SFRSYM    DATA     BYTE      EIP2H
      000000A0H.6 SFRSYM    DATA     BIT       P2_B6
      00000090H.7 SFRSYM    DATA     BIT       P1_B7
      00000098H.3 SFRSYM    DATA     BIT       DACGCF1_D3UDIS
      000000B0H.7 SFRSYM    DATA     BIT       P3_B7
      00000083H   SFRSYM    DATA     BYTE      DPH
      000000C4H   SFRSYM    DATA     BYTE      ADC0GTH
      000000C8H.7 SFRSYM    DATA     BIT       TMR2CN0_TF2H
      000000C8H.3 SFRSYM    DATA     BIT       TMR2CN0_T2SPLIT
      000000D0H.6 SFRSYM    DATA     BIT       PSW_AC
      000000F8H   SFRSYM    DATA     BYTE      SPI0CN0
      000000C7H   SFRSYM    DATA     BYTE      HFO0CAL
      00000088H.5 SFRSYM    DATA     BIT       TCON_TF0
      00000098H   SFRSYM    DATA     BIT       SCON0_RI
      000000D6H   SFRSYM    DATA     BYTE      HFO1CAL
      00000082H   SFRSYM    DATA     BYTE      DPL
      00000088H.7 SFRSYM    DATA     BIT       TCON_TF1
      000000C8H   SFRSYM    DATA     BIT       SCON1_RI
      00000099H   SFRSYM    DATA     BYTE      SBUF0
      00000087H   SFRSYM    DATA     BYTE      PCON0
      000000F2H   SFRSYM    DATA     BYTE      IPH
      000000C3H   SFRSYM    DATA     BYTE      ADC0GTL
      00000098H.7 SFRSYM    DATA     BIT       TMR4CN0_TF4H
      00000098H.3 SFRSYM    DATA     BIT       TMR4CN0_T4SPLIT
      000000C8H.6 SFRSYM    DATA     BIT       TMR2CN0_TF2L
LX51 LINKER/LOCATER V4.66.30.0                                                        05/06/2017  23:10:53  PAGE 93


      00000098H.1 SFRSYM    DATA     BIT       SCON0_TI
      00000092H   SFRSYM    DATA     BYTE      SBUF1
      000000CDH   SFRSYM    DATA     BYTE      PCON1
      000000C6H   SFRSYM    DATA     BYTE      ADC0LTH
      00000088H   SFRSYM    DATA     BIT       TCON_IT0
      000000C8H.1 SFRSYM    DATA     BIT       SCON1_TI
      000000EFH   SFRSYM    DATA     BYTE      RSTSRC
      000000FDH   SFRSYM    DATA     BYTE      P0MAT
      000000CBH   SFRSYM    DATA     BYTE      CRC0DAT
      000000C0H.7 SFRSYM    DATA     BIT       TMR5CN0_TF5H
      000000C0H.3 SFRSYM    DATA     BIT       TMR5CN0_T5SPLIT
      00000088H.2 SFRSYM    DATA     BIT       TCON_IT1
      000000D7H   SFRSYM    DATA     BYTE      SFRSTACK
      00000098H   SFRSYM    DATA     BYTE      SCON0
      000000F6H   SFRSYM    DATA     BYTE      PRTDRV
      000000EDH   SFRSYM    DATA     BYTE      P1MAT
      000000E8H.3 SFRSYM    DATA     BIT       ADC0CN0_ADWINT
      00000093H   SFRSYM    DATA     BYTE      SMOD1
      000000C8H   SFRSYM    DATA     BYTE      SCON1
      000000FBH   SFRSYM    DATA     BYTE      P2MAT
      00000098H.6 SFRSYM    DATA     BIT       TMR4CN0_TF4L
      000000E8H.4 SFRSYM    DATA     BIT       ADC0CN0_ADBUSY
      000000D6H   SFRSYM    DATA     BYTE      SMB0ADM
      000000C5H   SFRSYM    DATA     BYTE      ADC0LTL
      000000F8H.5 SFRSYM    DATA     BIT       SPI0CN0_MODF
      000000B8H.6 SFRSYM    DATA     BIT       IP_PSPI0
      000000E8H.1 SFRSYM    DATA     BIT       ADC0CN0_ADGN0
      0000009CH   SFRSYM    DATA     BYTE      PCA0CLR
      000000C0H.6 SFRSYM    DATA     BIT       TMR5CN0_TF5L
      000000E8H.2 SFRSYM    DATA     BIT       ADC0CN0_ADGN1
      000000C8H   SFRSYM    DATA     BYTE      TMR2CN0
      00000091H   SFRSYM    DATA     BYTE      TMR3CN0
      000000FDH   SFRSYM    DATA     BYTE      TMR2CN1
      00000098H   SFRSYM    DATA     BYTE      TMR4CN0
      000000FEH   SFRSYM    DATA     BYTE      TMR3CN1
      000000C0H   SFRSYM    DATA     BYTE      TMR5CN0
      000000FFH   SFRSYM    DATA     BYTE      TMR4CN1
      000000D7H   SFRSYM    DATA     BYTE      SMB0ADR
      00000088H.4 SFRSYM    DATA     BIT       TCON_TR0
      000000F1H   SFRSYM    DATA     BYTE      TMR5CN1
      000000C8H.4 SFRSYM    DATA     BIT       TMR2CN0_TF2CEN
      00000088H.6 SFRSYM    DATA     BIT       TCON_TR1
      000000C2H   SFRSYM    DATA     BYTE      SMB0DAT
      000000CFH   SFRSYM    DATA     BYTE      TMR2H
      000000A1H   SFRSYM    DATA     BYTE      SPI0CFG
      00000095H   SFRSYM    DATA     BYTE      TMR3H
      000000EFH   SFRSYM    DATA     BYTE      HFOCN
      000000D3H   SFRSYM    DATA     BYTE      CRC0CNT
      000000A5H   SFRSYM    DATA     BYTE      TMR4H
      00000098H.4 SFRSYM    DATA     BIT       TMR4CN0_TF4CEN
      000000D5H   SFRSYM    DATA     BYTE      TMR5H
      000000EFH   SFRSYM    DATA     BYTE      SMB0FCT
      00000096H   SFRSYM    DATA     BYTE      PCA0POL
      000000CEH   SFRSYM    DATA     BYTE      TMR2L
      000000C0H.4 SFRSYM    DATA     BIT       TMR5CN0_TF5CEN
      000000F8H.7 SFRSYM    DATA     BIT       SPI0CN0_SPIF
      00000094H   SFRSYM    DATA     BYTE      TMR3L
      000000A8H.7 SFRSYM    DATA     BIT       IE_EA
      000000A4H   SFRSYM    DATA     BYTE      TMR4L
      000000D4H   SFRSYM    DATA     BYTE      TMR5L
      000000C8H.5 SFRSYM    DATA     BIT       TMR2CN0_TF2LEN
      000000F8H.6 SFRSYM    DATA     BIT       SPI0CN0_WCOL
LX51 LINKER/LOCATER V4.66.30.0                                                        05/06/2017  23:10:53  PAGE 94


      000000F8H.2 SFRSYM    DATA     BIT       SPI0CN0_NSSMD0
      000000D0H.7 SFRSYM    DATA     BIT       PSW_CY
      0000009DH   SFRSYM    DATA     BYTE      UART1FCN0
      000000DFH   SFRSYM    DATA     BYTE      SPI0PCF
      000000A3H   SFRSYM    DATA     BYTE      SPI0DAT
      000000ADH   SFRSYM    DATA     BYTE      I2C0FCN0
      000000A0H.2 SFRSYM    DATA     BIT       BC_EN
      000000F8H.3 SFRSYM    DATA     BIT       SPI0CN0_NSSMD1
      000000BDH   SFRSYM    DATA     WORD      ADC0
      000000D8H   SFRSYM    DATA     BYTE      UART1FCN1
      000000ABH   SFRSYM    DATA     BYTE      I2C0FCN1
      000000E8H   SFRSYM    DATA     BIT       CLIF0_C0FIF
      00000098H.5 SFRSYM    DATA     BIT       TMR4CN0_TF4LEN
      000000E8H.2 SFRSYM    DATA     BIT       CLIF0_C1FIF
      000000D0H   SFRSYM    DATA     BYTE      PSW
      000000F7H   SFRSYM    DATA     BYTE      PCA0PWM
      000000E8H.4 SFRSYM    DATA     BIT       CLIF0_C2FIF
      000000F7H   SFRSYM    DATA     BYTE      SPI0FCT
      000000B6H   SFRSYM    DATA     BYTE      REVID
      000000C0H.5 SFRSYM    DATA     BIT       TMR5CN0_TF5LEN
      000000E8H.6 SFRSYM    DATA     BIT       CLIF0_C3FIF
      000000B7H   SFRSYM    DATA     BYTE      FLKEY

      01002DB5H   BLOCK     CODE     ---       LVL=0
      01002DB5H   BLOCK     CODE     NEAR LAB  LVL=1
      0200001AH   SYMBOL    XDATA    BYTE      inputcharacter
      ---         BLOCKEND  ---      ---       LVL=1
      01002DB5H   LINE      CODE     ---       #69
      01002DB5H   LINE      CODE     ---       #70
      01002DB5H   LINE      CODE     ---       #73
      01002DB8H   LINE      CODE     ---       #75
      01002DBAH   LINE      CODE     ---       #77
      01002DBCH   LINE      CODE     ---       #80
      01002DBEH   LINE      CODE     ---       #83
      01002DBEH   LINE      CODE     ---       #84
      01002DBEH   LINE      CODE     ---       #87
      01002DC1H   LINE      CODE     ---       #89
      ---         BLOCKEND  ---      ---       LVL=0

      ---         MODULE    ---      ---       ?C_INIT
      0100289DH   PUBLIC    CODE     ---       ?C_START

      ---         MODULE    ---      ---       ?C?CLDPTR
      0100247EH   PUBLIC    CODE     ---       ?C?CLDPTR

      ---         MODULE    ---      ---       ?C?CLDOPTR
      01002497H   PUBLIC    CODE     ---       ?C?CLDOPTR

      ---         MODULE    ---      ---       ?C?IILDX
      010024C4H   PUBLIC    CODE     ---       ?C?IILDX

      ---         MODULE    ---      ---       ?C?LMUL
      010024DAH   PUBLIC    CODE     ---       ?C?LMUL

      ---         MODULE    ---      ---       ?C?ULDIV
      01002565H   PUBLIC    CODE     ---       ?C?ULDIV

      ---         MODULE    ---      ---       ?C?SLDIV
      01002BCCH   PUBLIC    CODE     ---       ?C?SLDIV

      ---         MODULE    ---      ---       ?C?ULCMP
      010025F7H   PUBLIC    CODE     ---       ?C?ULCMP
LX51 LINKER/LOCATER V4.66.30.0                                                        05/06/2017  23:10:53  PAGE 95



      ---         MODULE    ---      ---       ?C?LSTXDATA
      01002608H   PUBLIC    CODE     ---       ?C?LSTXDATA

      ---         MODULE    ---      ---       ?C?LIMUL
      01002614H   PUBLIC    CODE     ---       ?C?LIMUL

      ---         MODULE    ---      ---       PRINTF
      0200009CH   PUBLIC    XDATA    ---       ?_PRINTF517?BYTE
      0200009CH   PUBLIC    XDATA    ---       ?_PRINTF?BYTE
      0200009CH   PUBLIC    XDATA    ---       ?_SPRINTF517?BYTE
      0200009CH   PUBLIC    XDATA    ---       ?_SPRINTF?BYTE
      01002184H   PUBLIC    CODE     ---       _PRINTF
      01002184H   PUBLIC    CODE     ---       _PRINTF517
      0100217EH   PUBLIC    CODE     ---       _SPRINTF
      0100217EH   PUBLIC    CODE     ---       _SPRINTF517

      ---         MODULE    ---      ---       GETCHAR
      00000021H.6 PUBLIC    BIT      ---       ?C?CHARLOADED
      020000FFH   PUBLIC    XDATA    ---       ?_UNGETCHAR?BYTE
      01002D34H   PUBLIC    CODE     ---       GETCHAR

      ---         MODULE    ---      ---       ?C?CSTPTR
      01002641H   PUBLIC    CODE     ---       ?C?CSTPTR

      ---         MODULE    ---      ---       ?C?PLDIXDATA
      01002653H   PUBLIC    CODE     ---       ?C?PLDIXDATA

      ---         MODULE    ---      ---       ?C?PSTXDATA
      0100266AH   PUBLIC    CODE     ---       ?C?PSTXDATA

      ---         MODULE    ---      ---       ?C?CCASE
      01002673H   PUBLIC    CODE     ---       ?C?CCASE

Program Size: data=23.7 xdata=256 const=800 code=11795
LX51 RUN COMPLETE.  0 WARNING(S),  0 ERROR(S)
